
target/x86_64-unknown-none/release/doom:     file format elf64-x86-64


Disassembly of section .text:

000000000002a1c0 <DG_BeginFrame>:
   2a1c0:	c3                   	ret
   2a1c1:	cc                   	int3
   2a1c2:	cc                   	int3
   2a1c3:	cc                   	int3
   2a1c4:	cc                   	int3
   2a1c5:	cc                   	int3
   2a1c6:	cc                   	int3
   2a1c7:	cc                   	int3
   2a1c8:	cc                   	int3
   2a1c9:	cc                   	int3
   2a1ca:	cc                   	int3
   2a1cb:	cc                   	int3
   2a1cc:	cc                   	int3
   2a1cd:	cc                   	int3
   2a1ce:	cc                   	int3
   2a1cf:	cc                   	int3

000000000002a1d0 <DG_DrawFrame>:
   2a1d0:	50                   	push   %rax
   2a1d1:	48 8b 05 40 d3 03 00 	mov    0x3d340(%rip),%rax        # 67518 <_DYNAMIC+0xe8>
   2a1d8:	48 8b 38             	mov    (%rax),%rdi
   2a1db:	48 85 ff             	test   %rdi,%rdi
   2a1de:	74 11                	je     2a1f1 <DG_DrawFrame+0x21>
   2a1e0:	48 be 40 01 00 00 c8 	movabs $0xc800000140,%rsi
   2a1e7:	00 00 00 
   2a1ea:	b8 0a 00 00 00       	mov    $0xa,%eax
   2a1ef:	cd 80                	int    $0x80
   2a1f1:	58                   	pop    %rax
   2a1f2:	c3                   	ret
   2a1f3:	cc                   	int3
   2a1f4:	cc                   	int3
   2a1f5:	cc                   	int3
   2a1f6:	cc                   	int3
   2a1f7:	cc                   	int3
   2a1f8:	cc                   	int3
   2a1f9:	cc                   	int3
   2a1fa:	cc                   	int3
   2a1fb:	cc                   	int3
   2a1fc:	cc                   	int3
   2a1fd:	cc                   	int3
   2a1fe:	cc                   	int3
   2a1ff:	cc                   	int3

000000000002a200 <DG_GetKey>:
   2a200:	50                   	push   %rax
   2a201:	b8 09 00 00 00       	mov    $0x9,%eax
   2a206:	cd 80                	int    $0x80
   2a208:	48 85 c0             	test   %rax,%rax
   2a20b:	74 0f                	je     2a21c <DG_GetKey+0x1c>
   2a20d:	c7 07 01 00 00 00    	movl   $0x1,(%rdi)
   2a213:	88 06                	mov    %al,(%rsi)
   2a215:	b8 01 00 00 00       	mov    $0x1,%eax
   2a21a:	59                   	pop    %rcx
   2a21b:	c3                   	ret
   2a21c:	31 c0                	xor    %eax,%eax
   2a21e:	59                   	pop    %rcx
   2a21f:	c3                   	ret

000000000002a220 <DG_GetTicksMs>:
   2a220:	50                   	push   %rax
   2a221:	b8 0b 00 00 00       	mov    $0xb,%eax
   2a226:	cd 80                	int    $0x80
   2a228:	59                   	pop    %rcx
   2a229:	c3                   	ret
   2a22a:	cc                   	int3
   2a22b:	cc                   	int3
   2a22c:	cc                   	int3
   2a22d:	cc                   	int3
   2a22e:	cc                   	int3
   2a22f:	cc                   	int3

000000000002a230 <DG_SetWindowTitle>:
   2a230:	c3                   	ret
   2a231:	cc                   	int3
   2a232:	cc                   	int3
   2a233:	cc                   	int3
   2a234:	cc                   	int3
   2a235:	cc                   	int3
   2a236:	cc                   	int3
   2a237:	cc                   	int3
   2a238:	cc                   	int3
   2a239:	cc                   	int3
   2a23a:	cc                   	int3
   2a23b:	cc                   	int3
   2a23c:	cc                   	int3
   2a23d:	cc                   	int3
   2a23e:	cc                   	int3
   2a23f:	cc                   	int3

000000000002a240 <DG_SleepMs>:
   2a240:	69 c7 e8 03 00 00    	imul   $0x3e8,%edi,%eax
   2a246:	85 c0                	test   %eax,%eax
   2a248:	74 10                	je     2a25a <DG_SleepMs+0x1a>
   2a24a:	50                   	push   %rax
   2a24b:	0f 1f 44 00 00       	nopl   0x0(%rax,%rax,1)
   2a250:	f3 90                	pause
   2a252:	ff c8                	dec    %eax
   2a254:	75 fa                	jne    2a250 <DG_SleepMs+0x10>
   2a256:	48 83 c4 08          	add    $0x8,%rsp
   2a25a:	c3                   	ret
   2a25b:	cc                   	int3
   2a25c:	cc                   	int3
   2a25d:	cc                   	int3
   2a25e:	cc                   	int3
   2a25f:	cc                   	int3

000000000002a260 <_RNvCs2Lj2jyo7ES5_4doom12vprintf_core>:
   2a260:	55                   	push   %rbp
   2a261:	41 57                	push   %r15
   2a263:	41 56                	push   %r14
   2a265:	41 55                	push   %r13
   2a267:	41 54                	push   %r12
   2a269:	53                   	push   %rbx
   2a26a:	50                   	push   %rax
   2a26b:	48 89 f3             	mov    %rsi,%rbx
   2a26e:	49 89 fe             	mov    %rdi,%r14
   2a271:	8b 2e                	mov    (%rsi),%ebp
   2a273:	4c 8b 7e 10          	mov    0x10(%rsi),%r15
   2a277:	48 8b 56 08          	mov    0x8(%rsi),%rdx
   2a27b:	4c 8d 25 9e d6 fd ff 	lea    -0x22962(%rip),%r12        # 7920 <weapon_order_table-0x7220>
   2a282:	eb 1c                	jmp    2a2a0 <_RNvCs2Lj2jyo7ES5_4doom12vprintf_core+0x40>
   2a284:	b8 01 00 00 00       	mov    $0x1,%eax
   2a289:	bf 25 00 00 00       	mov    $0x25,%edi
   2a28e:	cd 80                	int    $0x80
   2a290:	41 0f b6 3e          	movzbl (%r14),%edi
   2a294:	cd 80                	int    $0x80
   2a296:	49 ff c6             	inc    %r14
   2a299:	0f 1f 80 00 00 00 00 	nopl   0x0(%rax)
   2a2a0:	41 0f b6 3e          	movzbl (%r14),%edi
   2a2a4:	83 ff 25             	cmp    $0x25,%edi
   2a2a7:	74 17                	je     2a2c0 <_RNvCs2Lj2jyo7ES5_4doom12vprintf_core+0x60>
   2a2a9:	85 ff                	test   %edi,%edi
   2a2ab:	0f 84 7c 04 00 00    	je     2a72d <_RNvCs2Lj2jyo7ES5_4doom12vprintf_core+0x4cd>
   2a2b1:	b8 01 00 00 00       	mov    $0x1,%eax
   2a2b6:	cd 80                	int    $0x80
   2a2b8:	49 ff c6             	inc    %r14
   2a2bb:	eb e3                	jmp    2a2a0 <_RNvCs2Lj2jyo7ES5_4doom12vprintf_core+0x40>
   2a2bd:	0f 1f 00             	nopl   (%rax)
   2a2c0:	41 0f b6 46 01       	movzbl 0x1(%r14),%eax
   2a2c5:	49 ff c6             	inc    %r14
   2a2c8:	83 c0 9c             	add    $0xffffff9c,%eax
   2a2cb:	83 f8 14             	cmp    $0x14,%eax
   2a2ce:	77 b4                	ja     2a284 <_RNvCs2Lj2jyo7ES5_4doom12vprintf_core+0x24>
   2a2d0:	49 63 04 84          	movslq (%r12,%rax,4),%rax
   2a2d4:	4c 01 e0             	add    %r12,%rax
   2a2d7:	ff e0                	jmp    *%rax
   2a2d9:	83 fd 29             	cmp    $0x29,%ebp
   2a2dc:	73 45                	jae    2a323 <_RNvCs2Lj2jyo7ES5_4doom12vprintf_core+0xc3>
   2a2de:	49 89 d5             	mov    %rdx,%r13
   2a2e1:	89 ea                	mov    %ebp,%edx
   2a2e3:	4c 01 fa             	add    %r15,%rdx
   2a2e6:	83 c5 08             	add    $0x8,%ebp
   2a2e9:	89 2b                	mov    %ebp,(%rbx)
   2a2eb:	eb 3e                	jmp    2a32b <_RNvCs2Lj2jyo7ES5_4doom12vprintf_core+0xcb>
   2a2ed:	83 fd 29             	cmp    $0x29,%ebp
   2a2f0:	0f 83 ad 00 00 00    	jae    2a3a3 <_RNvCs2Lj2jyo7ES5_4doom12vprintf_core+0x143>
   2a2f6:	48 89 d1             	mov    %rdx,%rcx
   2a2f9:	89 ea                	mov    %ebp,%edx
   2a2fb:	4c 01 fa             	add    %r15,%rdx
   2a2fe:	83 c5 08             	add    $0x8,%ebp
   2a301:	89 2b                	mov    %ebp,(%rbx)
   2a303:	e9 a3 00 00 00       	jmp    2a3ab <_RNvCs2Lj2jyo7ES5_4doom12vprintf_core+0x14b>
   2a308:	83 fd 29             	cmp    $0x29,%ebp
   2a30b:	0f 83 d2 01 00 00    	jae    2a4e3 <_RNvCs2Lj2jyo7ES5_4doom12vprintf_core+0x283>
   2a311:	48 89 d1             	mov    %rdx,%rcx
   2a314:	89 ea                	mov    %ebp,%edx
   2a316:	4c 01 fa             	add    %r15,%rdx
   2a319:	83 c5 08             	add    $0x8,%ebp
   2a31c:	89 2b                	mov    %ebp,(%rbx)
   2a31e:	e9 c8 01 00 00       	jmp    2a4eb <_RNvCs2Lj2jyo7ES5_4doom12vprintf_core+0x28b>
   2a323:	4c 8d 6a 08          	lea    0x8(%rdx),%r13
   2a327:	4c 89 6b 08          	mov    %r13,0x8(%rbx)
   2a32b:	48 63 3a             	movslq (%rdx),%rdi
   2a32e:	e8 0d 04 00 00       	call   2a740 <_RNvCs2Lj2jyo7ES5_4doom9print_num>
   2a333:	4c 89 ea             	mov    %r13,%rdx
   2a336:	49 ff c6             	inc    %r14
   2a339:	e9 62 ff ff ff       	jmp    2a2a0 <_RNvCs2Lj2jyo7ES5_4doom12vprintf_core+0x40>
   2a33e:	83 fd 29             	cmp    $0x29,%ebp
   2a341:	0f 83 da 02 00 00    	jae    2a621 <_RNvCs2Lj2jyo7ES5_4doom12vprintf_core+0x3c1>
   2a347:	48 89 d1             	mov    %rdx,%rcx
   2a34a:	89 ea                	mov    %ebp,%edx
   2a34c:	4c 01 fa             	add    %r15,%rdx
   2a34f:	83 c5 08             	add    $0x8,%ebp
   2a352:	89 2b                	mov    %ebp,(%rbx)
   2a354:	48 8b 12             	mov    (%rdx),%rdx
   2a357:	48 85 d2             	test   %rdx,%rdx
   2a35a:	0f 84 d5 02 00 00    	je     2a635 <_RNvCs2Lj2jyo7ES5_4doom12vprintf_core+0x3d5>
   2a360:	0f b6 02             	movzbl (%rdx),%eax
   2a363:	84 c0                	test   %al,%al
   2a365:	0f 84 96 02 00 00    	je     2a601 <_RNvCs2Lj2jyo7ES5_4doom12vprintf_core+0x3a1>
   2a36b:	48 ff c2             	inc    %rdx
   2a36e:	66 90                	xchg   %ax,%ax
   2a370:	0f b6 f8             	movzbl %al,%edi
   2a373:	b8 01 00 00 00       	mov    $0x1,%eax
   2a378:	cd 80                	int    $0x80
   2a37a:	0f b6 02             	movzbl (%rdx),%eax
   2a37d:	48 ff c2             	inc    %rdx
   2a380:	84 c0                	test   %al,%al
   2a382:	75 ec                	jne    2a370 <_RNvCs2Lj2jyo7ES5_4doom12vprintf_core+0x110>
   2a384:	e9 78 02 00 00       	jmp    2a601 <_RNvCs2Lj2jyo7ES5_4doom12vprintf_core+0x3a1>
   2a389:	83 fd 29             	cmp    $0x29,%ebp
   2a38c:	0f 83 cf 02 00 00    	jae    2a661 <_RNvCs2Lj2jyo7ES5_4doom12vprintf_core+0x401>
   2a392:	49 89 d5             	mov    %rdx,%r13
   2a395:	89 ea                	mov    %ebp,%edx
   2a397:	4c 01 fa             	add    %r15,%rdx
   2a39a:	83 c5 08             	add    $0x8,%ebp
   2a39d:	89 2b                	mov    %ebp,(%rbx)
   2a39f:	8b 3a                	mov    (%rdx),%edi
   2a3a1:	eb 8b                	jmp    2a32e <_RNvCs2Lj2jyo7ES5_4doom12vprintf_core+0xce>
   2a3a3:	48 8d 4a 08          	lea    0x8(%rdx),%rcx
   2a3a7:	48 89 4b 08          	mov    %rcx,0x8(%rbx)
   2a3ab:	48 8b 12             	mov    (%rdx),%rdx
   2a3ae:	48 89 d7             	mov    %rdx,%rdi
   2a3b1:	48 89 d0             	mov    %rdx,%rax
   2a3b4:	48 c1 ef 3c          	shr    $0x3c,%rdi
   2a3b8:	74 26                	je     2a3e0 <_RNvCs2Lj2jyo7ES5_4doom12vprintf_core+0x180>
   2a3ba:	48 c1 e8 3d          	shr    $0x3d,%rax
   2a3be:	48 8d 77 30          	lea    0x30(%rdi),%rsi
   2a3c2:	48 83 c7 57          	add    $0x57,%rdi
   2a3c6:	83 f8 05             	cmp    $0x5,%eax
   2a3c9:	48 0f 42 fe          	cmovb  %rsi,%rdi
   2a3cd:	b8 01 00 00 00       	mov    $0x1,%eax
   2a3d2:	cd 80                	int    $0x80
   2a3d4:	48 89 d0             	mov    %rdx,%rax
   2a3d7:	48 c1 e8 38          	shr    $0x38,%rax
   2a3db:	83 e0 0f             	and    $0xf,%eax
   2a3de:	eb 0a                	jmp    2a3ea <_RNvCs2Lj2jyo7ES5_4doom12vprintf_core+0x18a>
   2a3e0:	48 c1 e8 38          	shr    $0x38,%rax
   2a3e4:	0f 84 9b 02 00 00    	je     2a685 <_RNvCs2Lj2jyo7ES5_4doom12vprintf_core+0x425>
   2a3ea:	48 89 c6             	mov    %rax,%rsi
   2a3ed:	48 83 ce 30          	or     $0x30,%rsi
   2a3f1:	48 8d 78 57          	lea    0x57(%rax),%rdi
   2a3f5:	48 83 f8 0a          	cmp    $0xa,%rax
   2a3f9:	48 0f 42 fe          	cmovb  %rsi,%rdi
   2a3fd:	b8 01 00 00 00       	mov    $0x1,%eax
   2a402:	cd 80                	int    $0x80
   2a404:	48 89 d0             	mov    %rdx,%rax
   2a407:	48 c1 e8 34          	shr    $0x34,%rax
   2a40b:	83 e0 0f             	and    $0xf,%eax
   2a40e:	48 89 c6             	mov    %rax,%rsi
   2a411:	48 83 ce 30          	or     $0x30,%rsi
   2a415:	48 8d 78 57          	lea    0x57(%rax),%rdi
   2a419:	48 83 f8 0a          	cmp    $0xa,%rax
   2a41d:	48 0f 42 fe          	cmovb  %rsi,%rdi
   2a421:	b8 01 00 00 00       	mov    $0x1,%eax
   2a426:	cd 80                	int    $0x80
   2a428:	48 89 d0             	mov    %rdx,%rax
   2a42b:	48 c1 e8 30          	shr    $0x30,%rax
   2a42f:	83 e0 0f             	and    $0xf,%eax
   2a432:	48 89 c6             	mov    %rax,%rsi
   2a435:	48 83 ce 30          	or     $0x30,%rsi
   2a439:	48 8d 78 57          	lea    0x57(%rax),%rdi
   2a43d:	48 83 f8 0a          	cmp    $0xa,%rax
   2a441:	48 0f 42 fe          	cmovb  %rsi,%rdi
   2a445:	b8 01 00 00 00       	mov    $0x1,%eax
   2a44a:	cd 80                	int    $0x80
   2a44c:	48 89 d0             	mov    %rdx,%rax
   2a44f:	48 c1 e8 2c          	shr    $0x2c,%rax
   2a453:	83 e0 0f             	and    $0xf,%eax
   2a456:	48 89 c6             	mov    %rax,%rsi
   2a459:	48 83 ce 30          	or     $0x30,%rsi
   2a45d:	48 8d 78 57          	lea    0x57(%rax),%rdi
   2a461:	48 83 f8 0a          	cmp    $0xa,%rax
   2a465:	48 0f 42 fe          	cmovb  %rsi,%rdi
   2a469:	b8 01 00 00 00       	mov    $0x1,%eax
   2a46e:	cd 80                	int    $0x80
   2a470:	48 89 d0             	mov    %rdx,%rax
   2a473:	48 c1 e8 28          	shr    $0x28,%rax
   2a477:	83 e0 0f             	and    $0xf,%eax
   2a47a:	48 89 c6             	mov    %rax,%rsi
   2a47d:	48 83 ce 30          	or     $0x30,%rsi
   2a481:	48 8d 78 57          	lea    0x57(%rax),%rdi
   2a485:	48 83 f8 0a          	cmp    $0xa,%rax
   2a489:	48 0f 42 fe          	cmovb  %rsi,%rdi
   2a48d:	b8 01 00 00 00       	mov    $0x1,%eax
   2a492:	cd 80                	int    $0x80
   2a494:	48 89 d0             	mov    %rdx,%rax
   2a497:	48 c1 e8 24          	shr    $0x24,%rax
   2a49b:	83 e0 0f             	and    $0xf,%eax
   2a49e:	48 89 c6             	mov    %rax,%rsi
   2a4a1:	48 83 ce 30          	or     $0x30,%rsi
   2a4a5:	48 8d 78 57          	lea    0x57(%rax),%rdi
   2a4a9:	48 83 f8 0a          	cmp    $0xa,%rax
   2a4ad:	48 0f 42 fe          	cmovb  %rsi,%rdi
   2a4b1:	b8 01 00 00 00       	mov    $0x1,%eax
   2a4b6:	cd 80                	int    $0x80
   2a4b8:	48 89 d0             	mov    %rdx,%rax
   2a4bb:	48 c1 e8 20          	shr    $0x20,%rax
   2a4bf:	83 e0 0f             	and    $0xf,%eax
   2a4c2:	48 89 c6             	mov    %rax,%rsi
   2a4c5:	48 83 ce 30          	or     $0x30,%rsi
   2a4c9:	48 8d 78 57          	lea    0x57(%rax),%rdi
   2a4cd:	48 83 f8 0a          	cmp    $0xa,%rax
   2a4d1:	48 0f 42 fe          	cmovb  %rsi,%rdi
   2a4d5:	b8 01 00 00 00       	mov    $0x1,%eax
   2a4da:	cd 80                	int    $0x80
   2a4dc:	89 d0                	mov    %edx,%eax
   2a4de:	c1 e8 1c             	shr    $0x1c,%eax
   2a4e1:	eb 1e                	jmp    2a501 <_RNvCs2Lj2jyo7ES5_4doom12vprintf_core+0x2a1>
   2a4e3:	48 8d 4a 08          	lea    0x8(%rdx),%rcx
   2a4e7:	48 89 4b 08          	mov    %rcx,0x8(%rbx)
   2a4eb:	8b 12                	mov    (%rdx),%edx
   2a4ed:	48 81 fa 00 00 00 10 	cmp    $0x10000000,%rdx
   2a4f4:	0f 82 12 01 00 00    	jb     2a60c <_RNvCs2Lj2jyo7ES5_4doom12vprintf_core+0x3ac>
   2a4fa:	48 89 d0             	mov    %rdx,%rax
   2a4fd:	48 c1 e8 1c          	shr    $0x1c,%rax
   2a501:	48 89 c6             	mov    %rax,%rsi
   2a504:	48 83 ce 30          	or     $0x30,%rsi
   2a508:	48 8d 78 57          	lea    0x57(%rax),%rdi
   2a50c:	48 83 f8 0a          	cmp    $0xa,%rax
   2a510:	48 0f 42 fe          	cmovb  %rsi,%rdi
   2a514:	b8 01 00 00 00       	mov    $0x1,%eax
   2a519:	cd 80                	int    $0x80
   2a51b:	89 d0                	mov    %edx,%eax
   2a51d:	c1 e8 18             	shr    $0x18,%eax
   2a520:	83 e0 0f             	and    $0xf,%eax
   2a523:	48 89 c6             	mov    %rax,%rsi
   2a526:	48 83 ce 30          	or     $0x30,%rsi
   2a52a:	48 8d 78 57          	lea    0x57(%rax),%rdi
   2a52e:	48 83 f8 0a          	cmp    $0xa,%rax
   2a532:	48 0f 42 fe          	cmovb  %rsi,%rdi
   2a536:	b8 01 00 00 00       	mov    $0x1,%eax
   2a53b:	cd 80                	int    $0x80
   2a53d:	89 d0                	mov    %edx,%eax
   2a53f:	c1 e8 14             	shr    $0x14,%eax
   2a542:	83 e0 0f             	and    $0xf,%eax
   2a545:	48 89 c6             	mov    %rax,%rsi
   2a548:	48 83 ce 30          	or     $0x30,%rsi
   2a54c:	48 8d 78 57          	lea    0x57(%rax),%rdi
   2a550:	48 83 f8 0a          	cmp    $0xa,%rax
   2a554:	48 0f 42 fe          	cmovb  %rsi,%rdi
   2a558:	b8 01 00 00 00       	mov    $0x1,%eax
   2a55d:	cd 80                	int    $0x80
   2a55f:	89 d0                	mov    %edx,%eax
   2a561:	c1 e8 10             	shr    $0x10,%eax
   2a564:	83 e0 0f             	and    $0xf,%eax
   2a567:	48 89 c6             	mov    %rax,%rsi
   2a56a:	48 83 ce 30          	or     $0x30,%rsi
   2a56e:	48 8d 78 57          	lea    0x57(%rax),%rdi
   2a572:	48 83 f8 0a          	cmp    $0xa,%rax
   2a576:	48 0f 42 fe          	cmovb  %rsi,%rdi
   2a57a:	b8 01 00 00 00       	mov    $0x1,%eax
   2a57f:	cd 80                	int    $0x80
   2a581:	89 d0                	mov    %edx,%eax
   2a583:	c1 e8 0c             	shr    $0xc,%eax
   2a586:	83 e0 0f             	and    $0xf,%eax
   2a589:	48 89 c6             	mov    %rax,%rsi
   2a58c:	48 83 ce 30          	or     $0x30,%rsi
   2a590:	48 8d 78 57          	lea    0x57(%rax),%rdi
   2a594:	48 83 f8 0a          	cmp    $0xa,%rax
   2a598:	48 0f 42 fe          	cmovb  %rsi,%rdi
   2a59c:	b8 01 00 00 00       	mov    $0x1,%eax
   2a5a1:	cd 80                	int    $0x80
   2a5a3:	89 d0                	mov    %edx,%eax
   2a5a5:	c1 e8 08             	shr    $0x8,%eax
   2a5a8:	83 e0 0f             	and    $0xf,%eax
   2a5ab:	48 89 c6             	mov    %rax,%rsi
   2a5ae:	48 83 ce 30          	or     $0x30,%rsi
   2a5b2:	48 8d 78 57          	lea    0x57(%rax),%rdi
   2a5b6:	48 83 f8 0a          	cmp    $0xa,%rax
   2a5ba:	48 0f 42 fe          	cmovb  %rsi,%rdi
   2a5be:	b8 01 00 00 00       	mov    $0x1,%eax
   2a5c3:	cd 80                	int    $0x80
   2a5c5:	89 d0                	mov    %edx,%eax
   2a5c7:	c1 e8 04             	shr    $0x4,%eax
   2a5ca:	83 e0 0f             	and    $0xf,%eax
   2a5cd:	48 89 c6             	mov    %rax,%rsi
   2a5d0:	48 83 ce 30          	or     $0x30,%rsi
   2a5d4:	48 8d 78 57          	lea    0x57(%rax),%rdi
   2a5d8:	48 83 f8 0a          	cmp    $0xa,%rax
   2a5dc:	48 0f 42 fe          	cmovb  %rsi,%rdi
   2a5e0:	b8 01 00 00 00       	mov    $0x1,%eax
   2a5e5:	cd 80                	int    $0x80
   2a5e7:	83 e2 0f             	and    $0xf,%edx
   2a5ea:	48 8d 42 30          	lea    0x30(%rdx),%rax
   2a5ee:	48 8d 7a 57          	lea    0x57(%rdx),%rdi
   2a5f2:	48 83 fa 0a          	cmp    $0xa,%rdx
   2a5f6:	48 0f 42 f8          	cmovb  %rax,%rdi
   2a5fa:	b8 01 00 00 00       	mov    $0x1,%eax
   2a5ff:	cd 80                	int    $0x80
   2a601:	48 89 ca             	mov    %rcx,%rdx
   2a604:	49 ff c6             	inc    %r14
   2a607:	e9 94 fc ff ff       	jmp    2a2a0 <_RNvCs2Lj2jyo7ES5_4doom12vprintf_core+0x40>
   2a60c:	48 81 fa 00 00 00 01 	cmp    $0x1000000,%rdx
   2a613:	72 5b                	jb     2a670 <_RNvCs2Lj2jyo7ES5_4doom12vprintf_core+0x410>
   2a615:	48 89 d0             	mov    %rdx,%rax
   2a618:	48 c1 e8 18          	shr    $0x18,%rax
   2a61c:	e9 02 ff ff ff       	jmp    2a523 <_RNvCs2Lj2jyo7ES5_4doom12vprintf_core+0x2c3>
   2a621:	48 8d 4a 08          	lea    0x8(%rdx),%rcx
   2a625:	48 89 4b 08          	mov    %rcx,0x8(%rbx)
   2a629:	48 8b 12             	mov    (%rdx),%rdx
   2a62c:	48 85 d2             	test   %rdx,%rdx
   2a62f:	0f 85 2b fd ff ff    	jne    2a360 <_RNvCs2Lj2jyo7ES5_4doom12vprintf_core+0x100>
   2a635:	b8 01 00 00 00       	mov    $0x1,%eax
   2a63a:	bf 28 00 00 00       	mov    $0x28,%edi
   2a63f:	cd 80                	int    $0x80
   2a641:	bf 6e 00 00 00       	mov    $0x6e,%edi
   2a646:	cd 80                	int    $0x80
   2a648:	bf 75 00 00 00       	mov    $0x75,%edi
   2a64d:	cd 80                	int    $0x80
   2a64f:	bf 6c 00 00 00       	mov    $0x6c,%edi
   2a654:	cd 80                	int    $0x80
   2a656:	cd 80                	int    $0x80
   2a658:	bf 29 00 00 00       	mov    $0x29,%edi
   2a65d:	cd 80                	int    $0x80
   2a65f:	eb a0                	jmp    2a601 <_RNvCs2Lj2jyo7ES5_4doom12vprintf_core+0x3a1>
   2a661:	4c 8d 6a 08          	lea    0x8(%rdx),%r13
   2a665:	4c 89 6b 08          	mov    %r13,0x8(%rbx)
   2a669:	8b 3a                	mov    (%rdx),%edi
   2a66b:	e9 be fc ff ff       	jmp    2a32e <_RNvCs2Lj2jyo7ES5_4doom12vprintf_core+0xce>
   2a670:	48 81 fa 00 00 10 00 	cmp    $0x100000,%rdx
   2a677:	72 5f                	jb     2a6d8 <_RNvCs2Lj2jyo7ES5_4doom12vprintf_core+0x478>
   2a679:	48 89 d0             	mov    %rdx,%rax
   2a67c:	48 c1 e8 14          	shr    $0x14,%rax
   2a680:	e9 c0 fe ff ff       	jmp    2a545 <_RNvCs2Lj2jyo7ES5_4doom12vprintf_core+0x2e5>
   2a685:	48 89 d0             	mov    %rdx,%rax
   2a688:	48 c1 e8 34          	shr    $0x34,%rax
   2a68c:	0f 85 7c fd ff ff    	jne    2a40e <_RNvCs2Lj2jyo7ES5_4doom12vprintf_core+0x1ae>
   2a692:	48 89 d0             	mov    %rdx,%rax
   2a695:	48 c1 e8 30          	shr    $0x30,%rax
   2a699:	0f 85 93 fd ff ff    	jne    2a432 <_RNvCs2Lj2jyo7ES5_4doom12vprintf_core+0x1d2>
   2a69f:	48 89 d0             	mov    %rdx,%rax
   2a6a2:	48 c1 e8 2c          	shr    $0x2c,%rax
   2a6a6:	0f 85 aa fd ff ff    	jne    2a456 <_RNvCs2Lj2jyo7ES5_4doom12vprintf_core+0x1f6>
   2a6ac:	48 89 d0             	mov    %rdx,%rax
   2a6af:	48 c1 e8 28          	shr    $0x28,%rax
   2a6b3:	0f 85 c1 fd ff ff    	jne    2a47a <_RNvCs2Lj2jyo7ES5_4doom12vprintf_core+0x21a>
   2a6b9:	48 89 d0             	mov    %rdx,%rax
   2a6bc:	48 c1 e8 24          	shr    $0x24,%rax
   2a6c0:	0f 85 d8 fd ff ff    	jne    2a49e <_RNvCs2Lj2jyo7ES5_4doom12vprintf_core+0x23e>
   2a6c6:	48 89 d0             	mov    %rdx,%rax
   2a6c9:	48 c1 e8 20          	shr    $0x20,%rax
   2a6cd:	0f 85 ef fd ff ff    	jne    2a4c2 <_RNvCs2Lj2jyo7ES5_4doom12vprintf_core+0x262>
   2a6d3:	e9 15 fe ff ff       	jmp    2a4ed <_RNvCs2Lj2jyo7ES5_4doom12vprintf_core+0x28d>
   2a6d8:	48 81 fa 00 00 01 00 	cmp    $0x10000,%rdx
   2a6df:	72 0c                	jb     2a6ed <_RNvCs2Lj2jyo7ES5_4doom12vprintf_core+0x48d>
   2a6e1:	48 89 d0             	mov    %rdx,%rax
   2a6e4:	48 c1 e8 10          	shr    $0x10,%rax
   2a6e8:	e9 7a fe ff ff       	jmp    2a567 <_RNvCs2Lj2jyo7ES5_4doom12vprintf_core+0x307>
   2a6ed:	48 81 fa 00 10 00 00 	cmp    $0x1000,%rdx
   2a6f4:	72 0c                	jb     2a702 <_RNvCs2Lj2jyo7ES5_4doom12vprintf_core+0x4a2>
   2a6f6:	48 89 d0             	mov    %rdx,%rax
   2a6f9:	48 c1 e8 0c          	shr    $0xc,%rax
   2a6fd:	e9 87 fe ff ff       	jmp    2a589 <_RNvCs2Lj2jyo7ES5_4doom12vprintf_core+0x329>
   2a702:	48 81 fa 00 01 00 00 	cmp    $0x100,%rdx
   2a709:	72 0c                	jb     2a717 <_RNvCs2Lj2jyo7ES5_4doom12vprintf_core+0x4b7>
   2a70b:	48 89 d0             	mov    %rdx,%rax
   2a70e:	48 c1 e8 08          	shr    $0x8,%rax
   2a712:	e9 94 fe ff ff       	jmp    2a5ab <_RNvCs2Lj2jyo7ES5_4doom12vprintf_core+0x34b>
   2a717:	48 83 fa 10          	cmp    $0x10,%rdx
   2a71b:	0f 82 c6 fe ff ff    	jb     2a5e7 <_RNvCs2Lj2jyo7ES5_4doom12vprintf_core+0x387>
   2a721:	48 89 d0             	mov    %rdx,%rax
   2a724:	48 c1 e8 04          	shr    $0x4,%rax
   2a728:	e9 a0 fe ff ff       	jmp    2a5cd <_RNvCs2Lj2jyo7ES5_4doom12vprintf_core+0x36d>
   2a72d:	48 83 c4 08          	add    $0x8,%rsp
   2a731:	5b                   	pop    %rbx
   2a732:	41 5c                	pop    %r12
   2a734:	41 5d                	pop    %r13
   2a736:	41 5e                	pop    %r14
   2a738:	41 5f                	pop    %r15
   2a73a:	5d                   	pop    %rbp
   2a73b:	c3                   	ret
   2a73c:	cc                   	int3
   2a73d:	cc                   	int3
   2a73e:	cc                   	int3
   2a73f:	cc                   	int3

000000000002a740 <_RNvCs2Lj2jyo7ES5_4doom9print_num>:
   2a740:	48 83 ec 18          	sub    $0x18,%rsp
   2a744:	48 85 ff             	test   %rdi,%rdi
   2a747:	74 1e                	je     2a767 <_RNvCs2Lj2jyo7ES5_4doom9print_num+0x27>
   2a749:	78 2d                	js     2a778 <_RNvCs2Lj2jyo7ES5_4doom9print_num+0x38>
   2a74b:	c7 44 24 14 00 00 00 	movl   $0x0,0x14(%rsp)
   2a752:	00 
   2a753:	48 c7 44 24 0d 00 00 	movq   $0x0,0xd(%rsp)
   2a75a:	00 00 
   2a75c:	48 c7 44 24 05 00 00 	movq   $0x0,0x5(%rsp)
   2a763:	00 00 
   2a765:	eb 49                	jmp    2a7b0 <_RNvCs2Lj2jyo7ES5_4doom9print_num+0x70>
   2a767:	b8 01 00 00 00       	mov    $0x1,%eax
   2a76c:	bf 30 00 00 00       	mov    $0x30,%edi
   2a771:	cd 80                	int    $0x80
   2a773:	48 83 c4 18          	add    $0x18,%rsp
   2a777:	c3                   	ret
   2a778:	b8 01 00 00 00       	mov    $0x1,%eax
   2a77d:	48 89 f9             	mov    %rdi,%rcx
   2a780:	bf 2d 00 00 00       	mov    $0x2d,%edi
   2a785:	cd 80                	int    $0x80
   2a787:	48 89 cf             	mov    %rcx,%rdi
   2a78a:	48 f7 df             	neg    %rdi
   2a78d:	c7 44 24 14 00 00 00 	movl   $0x0,0x14(%rsp)
   2a794:	00 
   2a795:	48 c7 44 24 0d 00 00 	movq   $0x0,0xd(%rsp)
   2a79c:	00 00 
   2a79e:	48 c7 44 24 05 00 00 	movq   $0x0,0x5(%rsp)
   2a7a5:	00 00 
   2a7a7:	48 85 ff             	test   %rdi,%rdi
   2a7aa:	0f 8e bc 04 00 00    	jle    2ac6c <_RNvCs2Lj2jyo7ES5_4doom9print_num+0x52c>
   2a7b0:	48 b9 cd cc cc cc cc 	movabs $0xcccccccccccccccd,%rcx
   2a7b7:	cc cc cc 
   2a7ba:	48 89 f8             	mov    %rdi,%rax
   2a7bd:	48 f7 e1             	mul    %rcx
   2a7c0:	48 c1 ea 03          	shr    $0x3,%rdx
   2a7c4:	8d 04 12             	lea    (%rdx,%rdx,1),%eax
   2a7c7:	8d 04 80             	lea    (%rax,%rax,4),%eax
   2a7ca:	89 f9                	mov    %edi,%ecx
   2a7cc:	29 c1                	sub    %eax,%ecx
   2a7ce:	80 c9 30             	or     $0x30,%cl
   2a7d1:	88 4c 24 04          	mov    %cl,0x4(%rsp)
   2a7d5:	b9 01 00 00 00       	mov    $0x1,%ecx
   2a7da:	48 83 ff 09          	cmp    $0x9,%rdi
   2a7de:	0f 86 75 04 00 00    	jbe    2ac59 <_RNvCs2Lj2jyo7ES5_4doom9print_num+0x519>
   2a7e4:	48 be 9a 99 99 99 99 	movabs $0x199999999999999a,%rsi
   2a7eb:	99 99 19 
   2a7ee:	48 89 d0             	mov    %rdx,%rax
   2a7f1:	48 89 d1             	mov    %rdx,%rcx
   2a7f4:	48 f7 e6             	mul    %rsi
   2a7f7:	01 d2                	add    %edx,%edx
   2a7f9:	8d 04 92             	lea    (%rdx,%rdx,4),%eax
   2a7fc:	29 c1                	sub    %eax,%ecx
   2a7fe:	80 c9 30             	or     $0x30,%cl
   2a801:	88 4c 24 05          	mov    %cl,0x5(%rsp)
   2a805:	b9 02 00 00 00       	mov    $0x2,%ecx
   2a80a:	48 83 ff 64          	cmp    $0x64,%rdi
   2a80e:	0f 82 45 04 00 00    	jb     2ac59 <_RNvCs2Lj2jyo7ES5_4doom9print_num+0x519>
   2a814:	48 89 f8             	mov    %rdi,%rax
   2a817:	48 c1 e8 02          	shr    $0x2,%rax
   2a81b:	48 b9 c3 f5 28 5c 8f 	movabs $0x28f5c28f5c28f5c3,%rcx
   2a822:	c2 f5 28 
   2a825:	48 f7 e1             	mul    %rcx
   2a828:	48 89 d1             	mov    %rdx,%rcx
   2a82b:	48 c1 e9 02          	shr    $0x2,%rcx
   2a82f:	48 89 c8             	mov    %rcx,%rax
   2a832:	48 f7 e6             	mul    %rsi
   2a835:	01 d2                	add    %edx,%edx
   2a837:	8d 04 92             	lea    (%rdx,%rdx,4),%eax
   2a83a:	29 c1                	sub    %eax,%ecx
   2a83c:	80 c9 30             	or     $0x30,%cl
   2a83f:	88 4c 24 06          	mov    %cl,0x6(%rsp)
   2a843:	b9 03 00 00 00       	mov    $0x3,%ecx
   2a848:	48 81 ff e8 03 00 00 	cmp    $0x3e8,%rdi
   2a84f:	0f 82 04 04 00 00    	jb     2ac59 <_RNvCs2Lj2jyo7ES5_4doom9print_num+0x519>
   2a855:	48 89 f8             	mov    %rdi,%rax
   2a858:	48 c1 e8 03          	shr    $0x3,%rax
   2a85c:	48 b9 cf f7 53 e3 a5 	movabs $0x20c49ba5e353f7cf,%rcx
   2a863:	9b c4 20 
   2a866:	48 f7 e1             	mul    %rcx
   2a869:	48 89 d1             	mov    %rdx,%rcx
   2a86c:	48 c1 e9 04          	shr    $0x4,%rcx
   2a870:	48 89 c8             	mov    %rcx,%rax
   2a873:	48 f7 e6             	mul    %rsi
   2a876:	01 d2                	add    %edx,%edx
   2a878:	8d 04 92             	lea    (%rdx,%rdx,4),%eax
   2a87b:	29 c1                	sub    %eax,%ecx
   2a87d:	80 c9 30             	or     $0x30,%cl
   2a880:	88 4c 24 07          	mov    %cl,0x7(%rsp)
   2a884:	b9 04 00 00 00       	mov    $0x4,%ecx
   2a889:	48 81 ff 10 27 00 00 	cmp    $0x2710,%rdi
   2a890:	0f 82 c3 03 00 00    	jb     2ac59 <_RNvCs2Lj2jyo7ES5_4doom9print_num+0x519>
   2a896:	48 b9 4b 59 86 38 d6 	movabs $0x346dc5d63886594b,%rcx
   2a89d:	c5 6d 34 
   2a8a0:	48 89 f8             	mov    %rdi,%rax
   2a8a3:	48 f7 e1             	mul    %rcx
   2a8a6:	48 89 d1             	mov    %rdx,%rcx
   2a8a9:	48 c1 e9 0b          	shr    $0xb,%rcx
   2a8ad:	48 89 c8             	mov    %rcx,%rax
   2a8b0:	48 f7 e6             	mul    %rsi
   2a8b3:	01 d2                	add    %edx,%edx
   2a8b5:	8d 04 92             	lea    (%rdx,%rdx,4),%eax
   2a8b8:	29 c1                	sub    %eax,%ecx
   2a8ba:	80 c9 30             	or     $0x30,%cl
   2a8bd:	88 4c 24 08          	mov    %cl,0x8(%rsp)
   2a8c1:	b9 05 00 00 00       	mov    $0x5,%ecx
   2a8c6:	48 81 ff a0 86 01 00 	cmp    $0x186a0,%rdi
   2a8cd:	0f 82 86 03 00 00    	jb     2ac59 <_RNvCs2Lj2jyo7ES5_4doom9print_num+0x519>
   2a8d3:	48 89 f8             	mov    %rdi,%rax
   2a8d6:	48 c1 e8 05          	shr    $0x5,%rax
   2a8da:	48 b9 43 78 b4 71 c4 	movabs $0xa7c5ac471b47843,%rcx
   2a8e1:	5a 7c 0a 
   2a8e4:	48 f7 e1             	mul    %rcx
   2a8e7:	48 89 d1             	mov    %rdx,%rcx
   2a8ea:	48 c1 e9 07          	shr    $0x7,%rcx
   2a8ee:	48 89 c8             	mov    %rcx,%rax
   2a8f1:	48 f7 e6             	mul    %rsi
   2a8f4:	01 d2                	add    %edx,%edx
   2a8f6:	8d 04 92             	lea    (%rdx,%rdx,4),%eax
   2a8f9:	29 c1                	sub    %eax,%ecx
   2a8fb:	80 c9 30             	or     $0x30,%cl
   2a8fe:	88 4c 24 09          	mov    %cl,0x9(%rsp)
   2a902:	b9 06 00 00 00       	mov    $0x6,%ecx
   2a907:	48 81 ff 40 42 0f 00 	cmp    $0xf4240,%rdi
   2a90e:	0f 82 45 03 00 00    	jb     2ac59 <_RNvCs2Lj2jyo7ES5_4doom9print_num+0x519>
   2a914:	48 b9 db 34 b6 d7 82 	movabs $0x431bde82d7b634db,%rcx
   2a91b:	de 1b 43 
   2a91e:	48 89 f8             	mov    %rdi,%rax
   2a921:	48 f7 e1             	mul    %rcx
   2a924:	48 89 d1             	mov    %rdx,%rcx
   2a927:	48 c1 e9 12          	shr    $0x12,%rcx
   2a92b:	48 89 c8             	mov    %rcx,%rax
   2a92e:	48 f7 e6             	mul    %rsi
   2a931:	01 d2                	add    %edx,%edx
   2a933:	8d 04 92             	lea    (%rdx,%rdx,4),%eax
   2a936:	29 c1                	sub    %eax,%ecx
   2a938:	80 c9 30             	or     $0x30,%cl
   2a93b:	88 4c 24 0a          	mov    %cl,0xa(%rsp)
   2a93f:	b9 07 00 00 00       	mov    $0x7,%ecx
   2a944:	48 81 ff 80 96 98 00 	cmp    $0x989680,%rdi
   2a94b:	0f 82 08 03 00 00    	jb     2ac59 <_RNvCs2Lj2jyo7ES5_4doom9print_num+0x519>
   2a951:	48 b9 bd 42 7a e5 d5 	movabs $0xd6bf94d5e57a42bd,%rcx
   2a958:	94 bf d6 
   2a95b:	48 89 f8             	mov    %rdi,%rax
   2a95e:	48 f7 e1             	mul    %rcx
   2a961:	48 89 d1             	mov    %rdx,%rcx
   2a964:	48 c1 e9 17          	shr    $0x17,%rcx
   2a968:	48 89 c8             	mov    %rcx,%rax
   2a96b:	48 f7 e6             	mul    %rsi
   2a96e:	01 d2                	add    %edx,%edx
   2a970:	8d 04 92             	lea    (%rdx,%rdx,4),%eax
   2a973:	29 c1                	sub    %eax,%ecx
   2a975:	80 c9 30             	or     $0x30,%cl
   2a978:	88 4c 24 0b          	mov    %cl,0xb(%rsp)
   2a97c:	b9 08 00 00 00       	mov    $0x8,%ecx
   2a981:	48 81 ff 00 e1 f5 05 	cmp    $0x5f5e100,%rdi
   2a988:	0f 82 cb 02 00 00    	jb     2ac59 <_RNvCs2Lj2jyo7ES5_4doom9print_num+0x519>
   2a98e:	48 b9 fd ce 61 84 11 	movabs $0xabcc77118461cefd,%rcx
   2a995:	77 cc ab 
   2a998:	48 89 f8             	mov    %rdi,%rax
   2a99b:	48 f7 e1             	mul    %rcx
   2a99e:	48 89 d1             	mov    %rdx,%rcx
   2a9a1:	48 c1 e9 1a          	shr    $0x1a,%rcx
   2a9a5:	48 89 c8             	mov    %rcx,%rax
   2a9a8:	48 f7 e6             	mul    %rsi
   2a9ab:	01 d2                	add    %edx,%edx
   2a9ad:	8d 04 92             	lea    (%rdx,%rdx,4),%eax
   2a9b0:	29 c1                	sub    %eax,%ecx
   2a9b2:	80 c9 30             	or     $0x30,%cl
   2a9b5:	88 4c 24 0c          	mov    %cl,0xc(%rsp)
   2a9b9:	b9 09 00 00 00       	mov    $0x9,%ecx
   2a9be:	48 81 ff 00 ca 9a 3b 	cmp    $0x3b9aca00,%rdi
   2a9c5:	0f 82 8e 02 00 00    	jb     2ac59 <_RNvCs2Lj2jyo7ES5_4doom9print_num+0x519>
   2a9cb:	48 89 f8             	mov    %rdi,%rax
   2a9ce:	48 c1 e8 09          	shr    $0x9,%rax
   2a9d2:	48 b9 53 5a 9b a0 2f 	movabs $0x44b82fa09b5a53,%rcx
   2a9d9:	b8 44 00 
   2a9dc:	48 f7 e1             	mul    %rcx
   2a9df:	48 89 d1             	mov    %rdx,%rcx
   2a9e2:	48 c1 e9 0b          	shr    $0xb,%rcx
   2a9e6:	48 89 c8             	mov    %rcx,%rax
   2a9e9:	48 f7 e6             	mul    %rsi
   2a9ec:	01 d2                	add    %edx,%edx
   2a9ee:	8d 04 92             	lea    (%rdx,%rdx,4),%eax
   2a9f1:	29 c1                	sub    %eax,%ecx
   2a9f3:	80 c9 30             	or     $0x30,%cl
   2a9f6:	88 4c 24 0d          	mov    %cl,0xd(%rsp)
   2a9fa:	48 89 f8             	mov    %rdi,%rax
   2a9fd:	48 c1 e8 0a          	shr    $0xa,%rax
   2aa01:	b9 0a 00 00 00       	mov    $0xa,%ecx
   2aa06:	48 3d f9 02 95 00    	cmp    $0x9502f9,%rax
   2aa0c:	0f 82 47 02 00 00    	jb     2ac59 <_RNvCs2Lj2jyo7ES5_4doom9print_num+0x519>
   2aa12:	48 b9 bf d5 ed bd ce 	movabs $0xdbe6fecebdedd5bf,%rcx
   2aa19:	fe e6 db 
   2aa1c:	48 89 f8             	mov    %rdi,%rax
   2aa1f:	48 f7 e1             	mul    %rcx
   2aa22:	48 c1 ea 21          	shr    $0x21,%rdx
   2aa26:	48 69 c2 67 66 66 66 	imul   $0x66666667,%rdx,%rax
   2aa2d:	48 c1 e8 22          	shr    $0x22,%rax
   2aa31:	01 c0                	add    %eax,%eax
   2aa33:	8d 04 80             	lea    (%rax,%rax,4),%eax
   2aa36:	29 c2                	sub    %eax,%edx
   2aa38:	80 ca 30             	or     $0x30,%dl
   2aa3b:	88 54 24 0e          	mov    %dl,0xe(%rsp)
   2aa3f:	48 89 f8             	mov    %rdi,%rax
   2aa42:	48 c1 e8 0b          	shr    $0xb,%rax
   2aa46:	b9 0b 00 00 00       	mov    $0xb,%ecx
   2aa4b:	48 3d dd 0e e9 02    	cmp    $0x2e90edd,%rax
   2aa51:	0f 82 02 02 00 00    	jb     2ac59 <_RNvCs2Lj2jyo7ES5_4doom9print_num+0x519>
   2aa57:	48 b9 ff aa 24 cb 0b 	movabs $0xafebff0bcb24aaff,%rcx
   2aa5e:	ff eb af 
   2aa61:	48 89 f8             	mov    %rdi,%rax
   2aa64:	48 f7 e1             	mul    %rcx
   2aa67:	48 c1 ea 24          	shr    $0x24,%rdx
   2aa6b:	48 69 c2 9a 99 99 19 	imul   $0x1999999a,%rdx,%rax
   2aa72:	48 c1 e8 20          	shr    $0x20,%rax
   2aa76:	01 c0                	add    %eax,%eax
   2aa78:	8d 04 80             	lea    (%rax,%rax,4),%eax
   2aa7b:	29 c2                	sub    %eax,%edx
   2aa7d:	80 ca 30             	or     $0x30,%dl
   2aa80:	88 54 24 0f          	mov    %dl,0xf(%rsp)
   2aa84:	48 89 f8             	mov    %rdi,%rax
   2aa87:	48 c1 e8 0c          	shr    $0xc,%rax
   2aa8b:	b9 0c 00 00 00       	mov    $0xc,%ecx
   2aa90:	48 3d 51 4a 8d 0e    	cmp    $0xe8d4a51,%rax
   2aa96:	0f 82 bd 01 00 00    	jb     2ac59 <_RNvCs2Lj2jyo7ES5_4doom9print_num+0x519>
   2aa9c:	48 b9 33 22 d4 5b 02 	movabs $0x232f33025bd42233,%rcx
   2aaa3:	33 2f 23 
   2aaa6:	48 89 f8             	mov    %rdi,%rax
   2aaa9:	48 f7 e1             	mul    %rcx
   2aaac:	48 c1 ea 25          	shr    $0x25,%rdx
   2aab0:	48 69 c2 9a 99 99 19 	imul   $0x1999999a,%rdx,%rax
   2aab7:	48 c1 e8 20          	shr    $0x20,%rax
   2aabb:	01 c0                	add    %eax,%eax
   2aabd:	8d 04 80             	lea    (%rax,%rax,4),%eax
   2aac0:	29 c2                	sub    %eax,%edx
   2aac2:	80 ca 30             	or     $0x30,%dl
   2aac5:	88 54 24 10          	mov    %dl,0x10(%rsp)
   2aac9:	48 89 f8             	mov    %rdi,%rax
   2aacc:	48 c1 e8 0d          	shr    $0xd,%rax
   2aad0:	b9 0d 00 00 00       	mov    $0xd,%ecx
   2aad5:	48 3d 95 73 c2 48    	cmp    $0x48c27395,%rax
   2aadb:	0f 82 78 01 00 00    	jb     2ac59 <_RNvCs2Lj2jyo7ES5_4doom9print_num+0x519>
   2aae1:	48 b9 85 03 ed 92 d0 	movabs $0x384b84d092ed0385,%rcx
   2aae8:	84 4b 38 
   2aaeb:	48 89 f8             	mov    %rdi,%rax
   2aaee:	48 f7 e1             	mul    %rcx
   2aaf1:	48 c1 ea 29          	shr    $0x29,%rdx
   2aaf5:	48 69 c2 9a 99 99 19 	imul   $0x1999999a,%rdx,%rax
   2aafc:	48 c1 e8 20          	shr    $0x20,%rax
   2ab00:	01 c0                	add    %eax,%eax
   2ab02:	8d 04 80             	lea    (%rax,%rax,4),%eax
   2ab05:	29 c2                	sub    %eax,%edx
   2ab07:	80 ca 30             	or     $0x30,%dl
   2ab0a:	88 54 24 11          	mov    %dl,0x11(%rsp)
   2ab0e:	b9 0e 00 00 00       	mov    $0xe,%ecx
   2ab13:	48 b8 00 40 7a 10 f3 	movabs $0x5af3107a4000,%rax
   2ab1a:	5a 00 00 
   2ab1d:	48 39 c7             	cmp    %rax,%rdi
   2ab20:	0f 82 33 01 00 00    	jb     2ac59 <_RNvCs2Lj2jyo7ES5_4doom9print_num+0x519>
   2ab26:	48 b9 81 cd 95 50 c3 	movabs $0xb424dc35095cd81,%rcx
   2ab2d:	4d 42 0b 
   2ab30:	48 89 f8             	mov    %rdi,%rax
   2ab33:	48 f7 e1             	mul    %rcx
   2ab36:	48 c1 ea 2a          	shr    $0x2a,%rdx
   2ab3a:	48 69 c2 9a 99 99 19 	imul   $0x1999999a,%rdx,%rax
   2ab41:	48 c1 e8 20          	shr    $0x20,%rax
   2ab45:	01 c0                	add    %eax,%eax
   2ab47:	8d 04 80             	lea    (%rax,%rax,4),%eax
   2ab4a:	29 c2                	sub    %eax,%edx
   2ab4c:	80 ca 30             	or     $0x30,%dl
   2ab4f:	88 54 24 12          	mov    %dl,0x12(%rsp)
   2ab53:	b9 0f 00 00 00       	mov    $0xf,%ecx
   2ab58:	48 b8 00 80 c6 a4 7e 	movabs $0x38d7ea4c68000,%rax
   2ab5f:	8d 03 00 
   2ab62:	48 39 c7             	cmp    %rax,%rdi
   2ab65:	0f 82 ee 00 00 00    	jb     2ac59 <_RNvCs2Lj2jyo7ES5_4doom9print_num+0x519>
   2ab6b:	48 89 f8             	mov    %rdi,%rax
   2ab6e:	48 c1 e8 0f          	shr    $0xf,%rax
   2ab72:	48 b9 c3 ea dc f3 75 	movabs $0x24075f3dceac3,%rcx
   2ab79:	40 02 00 
   2ab7c:	48 f7 e1             	mul    %rcx
   2ab7f:	48 c1 ea 14          	shr    $0x14,%rdx
   2ab83:	69 c2 67 66 00 00    	imul   $0x6667,%edx,%eax
   2ab89:	c1 e8 11             	shr    $0x11,%eax
   2ab8c:	83 e0 fe             	and    $0xfffffffe,%eax
   2ab8f:	8d 04 80             	lea    (%rax,%rax,4),%eax
   2ab92:	29 c2                	sub    %eax,%edx
   2ab94:	80 ca 30             	or     $0x30,%dl
   2ab97:	88 54 24 13          	mov    %dl,0x13(%rsp)
   2ab9b:	b9 10 00 00 00       	mov    $0x10,%ecx
   2aba0:	48 b8 00 00 c1 6f f2 	movabs $0x2386f26fc10000,%rax
   2aba7:	86 23 00 
   2abaa:	48 39 c7             	cmp    %rax,%rdi
   2abad:	0f 82 a6 00 00 00    	jb     2ac59 <_RNvCs2Lj2jyo7ES5_4doom9print_num+0x519>
   2abb3:	48 b9 57 78 13 b1 2f 	movabs $0x39a5652fb1137857,%rcx
   2abba:	65 a5 39 
   2abbd:	48 89 f8             	mov    %rdi,%rax
   2abc0:	48 f7 e1             	mul    %rcx
   2abc3:	48 c1 ea 33          	shr    $0x33,%rdx
   2abc7:	69 c2 9a 19 00 00    	imul   $0x199a,%edx,%eax
   2abcd:	c1 e8 0f             	shr    $0xf,%eax
   2abd0:	83 e0 fe             	and    $0xfffffffe,%eax
   2abd3:	8d 04 80             	lea    (%rax,%rax,4),%eax
   2abd6:	29 c2                	sub    %eax,%edx
   2abd8:	80 ca 30             	or     $0x30,%dl
   2abdb:	88 54 24 14          	mov    %dl,0x14(%rsp)
   2abdf:	b9 11 00 00 00       	mov    $0x11,%ecx
   2abe4:	48 b8 00 00 8a 5d 78 	movabs $0x16345785d8a0000,%rax
   2abeb:	45 63 01 
   2abee:	48 39 c7             	cmp    %rax,%rdi
   2abf1:	72 66                	jb     2ac59 <_RNvCs2Lj2jyo7ES5_4doom9print_num+0x519>
   2abf3:	48 89 f8             	mov    %rdi,%rax
   2abf6:	48 c1 e8 11          	shr    $0x11,%rax
   2abfa:	48 b9 53 1b 19 d5 3b 	movabs $0x5c3bd5191b53,%rcx
   2ac01:	5c 00 00 
   2ac04:	48 f7 e1             	mul    %rcx
   2ac07:	c1 ea 16             	shr    $0x16,%edx
   2ac0a:	69 c2 cd 00 00 00    	imul   $0xcd,%edx,%eax
   2ac10:	c1 e8 0a             	shr    $0xa,%eax
   2ac13:	83 e0 fe             	and    $0xfffffffe,%eax
   2ac16:	8d 04 80             	lea    (%rax,%rax,4),%eax
   2ac19:	28 c2                	sub    %al,%dl
   2ac1b:	80 ca 30             	or     $0x30,%dl
   2ac1e:	88 54 24 15          	mov    %dl,0x15(%rsp)
   2ac22:	b9 12 00 00 00       	mov    $0x12,%ecx
   2ac27:	48 b8 00 00 64 a7 b3 	movabs $0xde0b6b3a7640000,%rax
   2ac2e:	b6 e0 0d 
   2ac31:	48 39 c7             	cmp    %rax,%rdi
   2ac34:	72 23                	jb     2ac59 <_RNvCs2Lj2jyo7ES5_4doom9print_num+0x519>
   2ac36:	48 c1 ef 12          	shr    $0x12,%rdi
   2ac3a:	48 b9 0f 49 47 77 c9 	movabs $0x49c97747490f,%rcx
   2ac41:	49 00 00 
   2ac44:	48 89 f8             	mov    %rdi,%rax
   2ac47:	48 f7 e1             	mul    %rcx
   2ac4a:	c1 ea 18             	shr    $0x18,%edx
   2ac4d:	80 ca 30             	or     $0x30,%dl
   2ac50:	88 54 24 16          	mov    %dl,0x16(%rsp)
   2ac54:	b9 13 00 00 00       	mov    $0x13,%ecx
   2ac59:	b8 01 00 00 00       	mov    $0x1,%eax
   2ac5e:	66 90                	xchg   %ax,%ax
   2ac60:	0f b6 7c 0c 03       	movzbl 0x3(%rsp,%rcx,1),%edi
   2ac65:	cd 80                	int    $0x80
   2ac67:	48 ff c9             	dec    %rcx
   2ac6a:	75 f4                	jne    2ac60 <_RNvCs2Lj2jyo7ES5_4doom9print_num+0x520>
   2ac6c:	48 83 c4 18          	add    $0x18,%rsp
   2ac70:	c3                   	ret
   2ac71:	cc                   	int3
   2ac72:	cc                   	int3
   2ac73:	cc                   	int3
   2ac74:	cc                   	int3
   2ac75:	cc                   	int3
   2ac76:	cc                   	int3
   2ac77:	cc                   	int3
   2ac78:	cc                   	int3
   2ac79:	cc                   	int3
   2ac7a:	cc                   	int3
   2ac7b:	cc                   	int3
   2ac7c:	cc                   	int3
   2ac7d:	cc                   	int3
   2ac7e:	cc                   	int3
   2ac7f:	cc                   	int3

000000000002ac80 <_RNvCsjnE8CvBvbNS_7___rustc17rust_begin_unwind>:
   2ac80:	eb fe                	jmp    2ac80 <_RNvCsjnE8CvBvbNS_7___rustc17rust_begin_unwind>
   2ac82:	cc                   	int3
   2ac83:	cc                   	int3
   2ac84:	cc                   	int3
   2ac85:	cc                   	int3
   2ac86:	cc                   	int3
   2ac87:	cc                   	int3
   2ac88:	cc                   	int3
   2ac89:	cc                   	int3
   2ac8a:	cc                   	int3
   2ac8b:	cc                   	int3
   2ac8c:	cc                   	int3
   2ac8d:	cc                   	int3
   2ac8e:	cc                   	int3
   2ac8f:	cc                   	int3

000000000002ac90 <_start>:
   2ac90:	53                   	push   %rbx
   2ac91:	48 83 ec 20          	sub    $0x20,%rsp
   2ac95:	48 8d 05 ac 10 05 01 	lea    0x10510ac(%rip),%rax        # 107bd48 <_RNvCs2Lj2jyo7ES5_4doom11FRAMEBUFFER>
   2ac9c:	48 8b 0d 75 c8 03 00 	mov    0x3c875(%rip),%rcx        # 67518 <_DYNAMIC+0xe8>
   2aca3:	48 89 01             	mov    %rax,(%rcx)
   2aca6:	48 8d 05 e8 f5 fd ff 	lea    -0x20a18(%rip),%rax        # a295 <weapon_order_table-0x48ab>
   2acad:	48 89 44 24 08       	mov    %rax,0x8(%rsp)
   2acb2:	48 8d 05 7f ce fd ff 	lea    -0x23181(%rip),%rax        # 7b38 <weapon_order_table-0x7008>
   2acb9:	48 89 44 24 10       	mov    %rax,0x10(%rsp)
   2acbe:	48 c7 44 24 18 00 00 	movq   $0x0,0x18(%rsp)
   2acc5:	00 00 
   2acc7:	48 8d 74 24 08       	lea    0x8(%rsp),%rsi
   2accc:	bf 02 00 00 00       	mov    $0x2,%edi
   2acd1:	ff 15 49 c8 03 00    	call   *0x3c849(%rip)        # 67520 <_DYNAMIC+0xf0>
   2acd7:	48 8b 1d 4a c8 03 00 	mov    0x3c84a(%rip),%rbx        # 67528 <_DYNAMIC+0xf8>
   2acde:	66 90                	xchg   %ax,%ax
   2ace0:	ff d3                	call   *%rbx
   2ace2:	eb fc                	jmp    2ace0 <_start+0x50>
   2ace4:	cc                   	int3
   2ace5:	cc                   	int3
   2ace6:	cc                   	int3
   2ace7:	cc                   	int3
   2ace8:	cc                   	int3
   2ace9:	cc                   	int3
   2acea:	cc                   	int3
   2aceb:	cc                   	int3
   2acec:	cc                   	int3
   2aced:	cc                   	int3
   2acee:	cc                   	int3
   2acef:	cc                   	int3

000000000002acf0 <abs>:
   2acf0:	89 f8                	mov    %edi,%eax
   2acf2:	f7 d8                	neg    %eax
   2acf4:	0f 48 c7             	cmovs  %edi,%eax
   2acf7:	c3                   	ret
   2acf8:	cc                   	int3
   2acf9:	cc                   	int3
   2acfa:	cc                   	int3
   2acfb:	cc                   	int3
   2acfc:	cc                   	int3
   2acfd:	cc                   	int3
   2acfe:	cc                   	int3
   2acff:	cc                   	int3

000000000002ad00 <atoi>:
   2ad00:	be 01 00 00 00       	mov    $0x1,%esi
   2ad05:	48 b8 00 36 00 00 01 	movabs $0x100003600,%rax
   2ad0c:	00 00 00 
   2ad0f:	0f b6 4c 37 ff       	movzbl -0x1(%rdi,%rsi,1),%ecx
   2ad14:	48 83 f9 2d          	cmp    $0x2d,%rcx
   2ad18:	77 39                	ja     2ad53 <atoi+0x53>
   2ad1a:	66 0f 1f 44 00 00    	nopw   0x0(%rax,%rax,1)
   2ad20:	48 0f a3 c8          	bt     %rcx,%rax
   2ad24:	73 10                	jae    2ad36 <atoi+0x36>
   2ad26:	48 ff c6             	inc    %rsi
   2ad29:	0f b6 4c 37 ff       	movzbl -0x1(%rdi,%rsi,1),%ecx
   2ad2e:	48 83 f9 2d          	cmp    $0x2d,%rcx
   2ad32:	76 ec                	jbe    2ad20 <atoi+0x20>
   2ad34:	eb 1d                	jmp    2ad53 <atoi+0x53>
   2ad36:	48 83 f9 2d          	cmp    $0x2d,%rcx
   2ad3a:	75 17                	jne    2ad53 <atoi+0x53>
   2ad3c:	0f b6 0c 37          	movzbl (%rdi,%rsi,1),%ecx
   2ad40:	ba ff ff ff ff       	mov    $0xffffffff,%edx
   2ad45:	44 8d 41 d0          	lea    -0x30(%rcx),%r8d
   2ad49:	31 c0                	xor    %eax,%eax
   2ad4b:	41 80 f8 09          	cmp    $0x9,%r8b
   2ad4f:	76 16                	jbe    2ad67 <atoi+0x67>
   2ad51:	eb 38                	jmp    2ad8b <atoi+0x8b>
   2ad53:	48 ff ce             	dec    %rsi
   2ad56:	ba 01 00 00 00       	mov    $0x1,%edx
   2ad5b:	44 8d 41 d0          	lea    -0x30(%rcx),%r8d
   2ad5f:	31 c0                	xor    %eax,%eax
   2ad61:	41 80 f8 09          	cmp    $0x9,%r8b
   2ad65:	77 24                	ja     2ad8b <atoi+0x8b>
   2ad67:	48 01 fe             	add    %rdi,%rsi
   2ad6a:	48 ff c6             	inc    %rsi
   2ad6d:	31 c0                	xor    %eax,%eax
   2ad6f:	90                   	nop
   2ad70:	8d 04 80             	lea    (%rax,%rax,4),%eax
   2ad73:	80 c1 d0             	add    $0xd0,%cl
   2ad76:	0f b6 c9             	movzbl %cl,%ecx
   2ad79:	8d 04 41             	lea    (%rcx,%rax,2),%eax
   2ad7c:	0f b6 0e             	movzbl (%rsi),%ecx
   2ad7f:	8d 79 d0             	lea    -0x30(%rcx),%edi
   2ad82:	48 ff c6             	inc    %rsi
   2ad85:	40 80 ff 0a          	cmp    $0xa,%dil
   2ad89:	72 e5                	jb     2ad70 <atoi+0x70>
   2ad8b:	0f af c2             	imul   %edx,%eax
   2ad8e:	c3                   	ret
   2ad8f:	cc                   	int3

000000000002ad90 <calloc>:
   2ad90:	53                   	push   %rbx
   2ad91:	48 89 fb             	mov    %rdi,%rbx
   2ad94:	48 0f af de          	imul   %rsi,%rbx
   2ad98:	48 89 df             	mov    %rbx,%rdi
   2ad9b:	e8 50 05 00 00       	call   2b2f0 <malloc>
   2ada0:	48 85 c0             	test   %rax,%rax
   2ada3:	74 0f                	je     2adb4 <calloc+0x24>
   2ada5:	48 89 c7             	mov    %rax,%rdi
   2ada8:	31 f6                	xor    %esi,%esi
   2adaa:	48 89 da             	mov    %rbx,%rdx
   2adad:	5b                   	pop    %rbx
   2adae:	ff 25 7c c7 03 00    	jmp    *0x3c77c(%rip)        # 67530 <_DYNAMIC+0x100>
   2adb4:	5b                   	pop    %rbx
   2adb5:	c3                   	ret
   2adb6:	cc                   	int3
   2adb7:	cc                   	int3
   2adb8:	cc                   	int3
   2adb9:	cc                   	int3
   2adba:	cc                   	int3
   2adbb:	cc                   	int3
   2adbc:	cc                   	int3
   2adbd:	cc                   	int3
   2adbe:	cc                   	int3
   2adbf:	cc                   	int3

000000000002adc0 <exit>:
   2adc0:	53                   	push   %rbx
   2adc1:	89 f9                	mov    %edi,%ecx
   2adc3:	b8 01 00 00 00       	mov    $0x1,%eax
   2adc8:	bf 5b 00 00 00       	mov    $0x5b,%edi
   2adcd:	cd 80                	int    $0x80
   2adcf:	bf 44 00 00 00       	mov    $0x44,%edi
   2add4:	cd 80                	int    $0x80
   2add6:	bf 4f 00 00 00       	mov    $0x4f,%edi
   2addb:	cd 80                	int    $0x80
   2addd:	cd 80                	int    $0x80
   2addf:	bf 4d 00 00 00       	mov    $0x4d,%edi
   2ade4:	cd 80                	int    $0x80
   2ade6:	bf 5d 00 00 00       	mov    $0x5d,%edi
   2adeb:	cd 80                	int    $0x80
   2aded:	bf 20 00 00 00       	mov    $0x20,%edi
   2adf2:	cd 80                	int    $0x80
   2adf4:	bf 45 00 00 00       	mov    $0x45,%edi
   2adf9:	cd 80                	int    $0x80
   2adfb:	bf 78 00 00 00       	mov    $0x78,%edi
   2ae00:	cd 80                	int    $0x80
   2ae02:	bf 69 00 00 00       	mov    $0x69,%edi
   2ae07:	cd 80                	int    $0x80
   2ae09:	bf 74 00 00 00       	mov    $0x74,%edi
   2ae0e:	cd 80                	int    $0x80
   2ae10:	bf 20 00 00 00       	mov    $0x20,%edi
   2ae15:	cd 80                	int    $0x80
   2ae17:	bf 63 00 00 00       	mov    $0x63,%edi
   2ae1c:	cd 80                	int    $0x80
   2ae1e:	bf 61 00 00 00       	mov    $0x61,%edi
   2ae23:	cd 80                	int    $0x80
   2ae25:	bf 6c 00 00 00       	mov    $0x6c,%edi
   2ae2a:	cd 80                	int    $0x80
   2ae2c:	cd 80                	int    $0x80
   2ae2e:	bf 65 00 00 00       	mov    $0x65,%edi
   2ae33:	cd 80                	int    $0x80
   2ae35:	bf 64 00 00 00       	mov    $0x64,%edi
   2ae3a:	cd 80                	int    $0x80
   2ae3c:	bf 20 00 00 00       	mov    $0x20,%edi
   2ae41:	cd 80                	int    $0x80
   2ae43:	bf 77 00 00 00       	mov    $0x77,%edi
   2ae48:	cd 80                	int    $0x80
   2ae4a:	bf 69 00 00 00       	mov    $0x69,%edi
   2ae4f:	cd 80                	int    $0x80
   2ae51:	bf 74 00 00 00       	mov    $0x74,%edi
   2ae56:	cd 80                	int    $0x80
   2ae58:	bf 68 00 00 00       	mov    $0x68,%edi
   2ae5d:	cd 80                	int    $0x80
   2ae5f:	bf 20 00 00 00       	mov    $0x20,%edi
   2ae64:	cd 80                	int    $0x80
   2ae66:	bf 73 00 00 00       	mov    $0x73,%edi
   2ae6b:	cd 80                	int    $0x80
   2ae6d:	bf 74 00 00 00       	mov    $0x74,%edi
   2ae72:	cd 80                	int    $0x80
   2ae74:	bf 61 00 00 00       	mov    $0x61,%edi
   2ae79:	cd 80                	int    $0x80
   2ae7b:	bf 74 00 00 00       	mov    $0x74,%edi
   2ae80:	cd 80                	int    $0x80
   2ae82:	bf 75 00 00 00       	mov    $0x75,%edi
   2ae87:	cd 80                	int    $0x80
   2ae89:	bf 73 00 00 00       	mov    $0x73,%edi
   2ae8e:	cd 80                	int    $0x80
   2ae90:	bf 3a 00 00 00       	mov    $0x3a,%edi
   2ae95:	cd 80                	int    $0x80
   2ae97:	bf 20 00 00 00       	mov    $0x20,%edi
   2ae9c:	cd 80                	int    $0x80
   2ae9e:	48 63 d9             	movslq %ecx,%rbx
   2aea1:	48 89 df             	mov    %rbx,%rdi
   2aea4:	e8 97 f8 ff ff       	call   2a740 <_RNvCs2Lj2jyo7ES5_4doom9print_num>
   2aea9:	b8 01 00 00 00       	mov    $0x1,%eax
   2aeae:	bf 0a 00 00 00       	mov    $0xa,%edi
   2aeb3:	cd 80                	int    $0x80
   2aeb5:	b8 02 00 00 00       	mov    $0x2,%eax
   2aeba:	66 0f 1f 44 00 00    	nopw   0x0(%rax,%rax,1)
   2aec0:	48 89 df             	mov    %rbx,%rdi
   2aec3:	cd 80                	int    $0x80
   2aec5:	eb f9                	jmp    2aec0 <exit+0x100>
   2aec7:	cc                   	int3
   2aec8:	cc                   	int3
   2aec9:	cc                   	int3
   2aeca:	cc                   	int3
   2aecb:	cc                   	int3
   2aecc:	cc                   	int3
   2aecd:	cc                   	int3
   2aece:	cc                   	int3
   2aecf:	cc                   	int3

000000000002aed0 <fabs>:
   2aed0:	41 56                	push   %r14
   2aed2:	53                   	push   %rbx
   2aed3:	50                   	push   %rax
   2aed4:	48 89 fb             	mov    %rdi,%rbx
   2aed7:	49 be 00 00 00 00 00 	movabs $0x8000000000000000,%r14
   2aede:	00 00 80 
   2aee1:	49 31 fe             	xor    %rdi,%r14
   2aee4:	4c 89 f6             	mov    %r14,%rsi
   2aee7:	ff 15 4b c6 03 00    	call   *0x3c64b(%rip)        # 67538 <_DYNAMIC+0x108>
   2aeed:	85 c0                	test   %eax,%eax
   2aeef:	4c 0f 49 f3          	cmovns %rbx,%r14
   2aef3:	4c 89 f0             	mov    %r14,%rax
   2aef6:	48 83 c4 08          	add    $0x8,%rsp
   2aefa:	5b                   	pop    %rbx
   2aefb:	41 5e                	pop    %r14
   2aefd:	c3                   	ret
   2aefe:	cc                   	int3
   2aeff:	cc                   	int3

000000000002af00 <fclose>:
   2af00:	48 85 ff             	test   %rdi,%rdi
   2af03:	74 12                	je     2af17 <fclose+0x17>
   2af05:	50                   	push   %rax
   2af06:	48 ff cf             	dec    %rdi
   2af09:	b8 0f 00 00 00       	mov    $0xf,%eax
   2af0e:	cd 80                	int    $0x80
   2af10:	31 c0                	xor    %eax,%eax
   2af12:	48 83 c4 08          	add    $0x8,%rsp
   2af16:	c3                   	ret
   2af17:	b8 ff ff ff ff       	mov    $0xffffffff,%eax
   2af1c:	c3                   	ret
   2af1d:	cc                   	int3
   2af1e:	cc                   	int3
   2af1f:	cc                   	int3

000000000002af20 <fflush>:
   2af20:	31 c0                	xor    %eax,%eax
   2af22:	c3                   	ret
   2af23:	cc                   	int3
   2af24:	cc                   	int3
   2af25:	cc                   	int3
   2af26:	cc                   	int3
   2af27:	cc                   	int3
   2af28:	cc                   	int3
   2af29:	cc                   	int3
   2af2a:	cc                   	int3
   2af2b:	cc                   	int3
   2af2c:	cc                   	int3
   2af2d:	cc                   	int3
   2af2e:	cc                   	int3
   2af2f:	cc                   	int3

000000000002af30 <fopen>:
   2af30:	53                   	push   %rbx
   2af31:	48 81 ec 80 00 00 00 	sub    $0x80,%rsp
   2af38:	48 89 f9             	mov    %rdi,%rcx
   2af3b:	b8 01 00 00 00       	mov    $0x1,%eax
   2af40:	bf 5b 00 00 00       	mov    $0x5b,%edi
   2af45:	cd 80                	int    $0x80
   2af47:	bf 44 00 00 00       	mov    $0x44,%edi
   2af4c:	cd 80                	int    $0x80
   2af4e:	bf 4f 00 00 00       	mov    $0x4f,%edi
   2af53:	cd 80                	int    $0x80
   2af55:	cd 80                	int    $0x80
   2af57:	bf 4d 00 00 00       	mov    $0x4d,%edi
   2af5c:	cd 80                	int    $0x80
   2af5e:	bf 5d 00 00 00       	mov    $0x5d,%edi
   2af63:	cd 80                	int    $0x80
   2af65:	bf 20 00 00 00       	mov    $0x20,%edi
   2af6a:	cd 80                	int    $0x80
   2af6c:	bf 66 00 00 00       	mov    $0x66,%edi
   2af71:	cd 80                	int    $0x80
   2af73:	bf 6f 00 00 00       	mov    $0x6f,%edi
   2af78:	cd 80                	int    $0x80
   2af7a:	bf 70 00 00 00       	mov    $0x70,%edi
   2af7f:	cd 80                	int    $0x80
   2af81:	bf 65 00 00 00       	mov    $0x65,%edi
   2af86:	cd 80                	int    $0x80
   2af88:	bf 6e 00 00 00       	mov    $0x6e,%edi
   2af8d:	cd 80                	int    $0x80
   2af8f:	bf 3a 00 00 00       	mov    $0x3a,%edi
   2af94:	cd 80                	int    $0x80
   2af96:	bf 20 00 00 00       	mov    $0x20,%edi
   2af9b:	cd 80                	int    $0x80
   2af9d:	0f b6 01             	movzbl (%rcx),%eax
   2afa0:	84 c0                	test   %al,%al
   2afa2:	74 20                	je     2afc4 <fopen+0x94>
   2afa4:	48 8d 51 01          	lea    0x1(%rcx),%rdx
   2afa8:	0f 1f 84 00 00 00 00 	nopl   0x0(%rax,%rax,1)
   2afaf:	00 
   2afb0:	0f b6 f8             	movzbl %al,%edi
   2afb3:	b8 01 00 00 00       	mov    $0x1,%eax
   2afb8:	cd 80                	int    $0x80
   2afba:	0f b6 02             	movzbl (%rdx),%eax
   2afbd:	48 ff c2             	inc    %rdx
   2afc0:	84 c0                	test   %al,%al
   2afc2:	75 ec                	jne    2afb0 <fopen+0x80>
   2afc4:	b8 0c 00 00 00       	mov    $0xc,%eax
   2afc9:	48 89 cf             	mov    %rcx,%rdi
   2afcc:	cd 80                	int    $0x80
   2afce:	48 89 c3             	mov    %rax,%rbx
   2afd1:	48 83 f8 ff          	cmp    $0xffffffffffffffff,%rax
   2afd5:	0f 85 25 01 00 00    	jne    2b100 <fopen+0x1d0>
   2afdb:	48 c7 44 24 78 00 00 	movq   $0x0,0x78(%rsp)
   2afe2:	00 00 
   2afe4:	48 c7 44 24 70 00 00 	movq   $0x0,0x70(%rsp)
   2afeb:	00 00 
   2afed:	48 c7 44 24 68 00 00 	movq   $0x0,0x68(%rsp)
   2aff4:	00 00 
   2aff6:	48 c7 44 24 60 00 00 	movq   $0x0,0x60(%rsp)
   2affd:	00 00 
   2afff:	48 c7 44 24 58 00 00 	movq   $0x0,0x58(%rsp)
   2b006:	00 00 
   2b008:	48 c7 44 24 50 00 00 	movq   $0x0,0x50(%rsp)
   2b00f:	00 00 
   2b011:	48 c7 44 24 48 00 00 	movq   $0x0,0x48(%rsp)
   2b018:	00 00 
   2b01a:	48 c7 44 24 40 00 00 	movq   $0x0,0x40(%rsp)
   2b021:	00 00 
   2b023:	48 c7 44 24 38 00 00 	movq   $0x0,0x38(%rsp)
   2b02a:	00 00 
   2b02c:	48 c7 44 24 30 00 00 	movq   $0x0,0x30(%rsp)
   2b033:	00 00 
   2b035:	48 c7 44 24 28 00 00 	movq   $0x0,0x28(%rsp)
   2b03c:	00 00 
   2b03e:	48 c7 44 24 20 00 00 	movq   $0x0,0x20(%rsp)
   2b045:	00 00 
   2b047:	48 c7 44 24 18 00 00 	movq   $0x0,0x18(%rsp)
   2b04e:	00 00 
   2b050:	48 c7 44 24 10 00 00 	movq   $0x0,0x10(%rsp)
   2b057:	00 00 
   2b059:	48 c7 44 24 08 00 00 	movq   $0x0,0x8(%rsp)
   2b060:	00 00 
   2b062:	48 c7 04 24 00 00 00 	movq   $0x0,(%rsp)
   2b069:	00 
   2b06a:	0f b6 31             	movzbl (%rcx),%esi
   2b06d:	40 84 f6             	test   %sil,%sil
   2b070:	74 71                	je     2b0e3 <fopen+0x1b3>
   2b072:	48 ff c1             	inc    %rcx
   2b075:	31 c0                	xor    %eax,%eax
   2b077:	48 ba 03 00 00 00 00 	movabs $0x400000000003,%rdx
   2b07e:	40 00 00 
   2b081:	66 66 66 66 66 66 2e 	data16 data16 data16 data16 data16 cs nopw 0x0(%rax,%rax,1)
   2b088:	0f 1f 84 00 00 00 00 
   2b08f:	00 
   2b090:	40 0f b6 fe          	movzbl %sil,%edi
   2b094:	83 c7 d2             	add    $0xffffffd2,%edi
   2b097:	83 ff 2e             	cmp    $0x2e,%edi
   2b09a:	77 24                	ja     2b0c0 <fopen+0x190>
   2b09c:	48 0f a3 fa          	bt     %rdi,%rdx
   2b0a0:	73 1e                	jae    2b0c0 <fopen+0x190>
   2b0a2:	0f b6 31             	movzbl (%rcx),%esi
   2b0a5:	40 84 f6             	test   %sil,%sil
   2b0a8:	74 3b                	je     2b0e5 <fopen+0x1b5>
   2b0aa:	48 ff c1             	inc    %rcx
   2b0ad:	48 83 f8 7f          	cmp    $0x7f,%rax
   2b0b1:	72 dd                	jb     2b090 <fopen+0x160>
   2b0b3:	eb 30                	jmp    2b0e5 <fopen+0x1b5>
   2b0b5:	66 66 2e 0f 1f 84 00 	data16 cs nopw 0x0(%rax,%rax,1)
   2b0bc:	00 00 00 00 
   2b0c0:	8d 7e 9f             	lea    -0x61(%rsi),%edi
   2b0c3:	40 80 ff 1a          	cmp    $0x1a,%dil
   2b0c7:	40 0f 92 c7          	setb   %dil
   2b0cb:	40 c0 e7 05          	shl    $0x5,%dil
   2b0cf:	40 30 f7             	xor    %sil,%dil
   2b0d2:	40 88 3c 04          	mov    %dil,(%rsp,%rax,1)
   2b0d6:	48 ff c0             	inc    %rax
   2b0d9:	0f b6 31             	movzbl (%rcx),%esi
   2b0dc:	40 84 f6             	test   %sil,%sil
   2b0df:	75 c9                	jne    2b0aa <fopen+0x17a>
   2b0e1:	eb 02                	jmp    2b0e5 <fopen+0x1b5>
   2b0e3:	31 c0                	xor    %eax,%eax
   2b0e5:	c6 04 04 00          	movb   $0x0,(%rsp,%rax,1)
   2b0e9:	48 89 e7             	mov    %rsp,%rdi
   2b0ec:	b8 0c 00 00 00       	mov    $0xc,%eax
   2b0f1:	cd 80                	int    $0x80
   2b0f3:	48 83 f8 ff          	cmp    $0xffffffffffffffff,%rax
   2b0f7:	0f 84 83 00 00 00    	je     2b180 <fopen+0x250>
   2b0fd:	48 89 c3             	mov    %rax,%rbx
   2b100:	b8 01 00 00 00       	mov    $0x1,%eax
   2b105:	bf 20 00 00 00       	mov    $0x20,%edi
   2b10a:	cd 80                	int    $0x80
   2b10c:	bf 2d 00 00 00       	mov    $0x2d,%edi
   2b111:	cd 80                	int    $0x80
   2b113:	bf 3e 00 00 00       	mov    $0x3e,%edi
   2b118:	cd 80                	int    $0x80
   2b11a:	bf 20 00 00 00       	mov    $0x20,%edi
   2b11f:	cd 80                	int    $0x80
   2b121:	bf 53 00 00 00       	mov    $0x53,%edi
   2b126:	cd 80                	int    $0x80
   2b128:	bf 55 00 00 00       	mov    $0x55,%edi
   2b12d:	cd 80                	int    $0x80
   2b12f:	bf 43 00 00 00       	mov    $0x43,%edi
   2b134:	cd 80                	int    $0x80
   2b136:	cd 80                	int    $0x80
   2b138:	bf 45 00 00 00       	mov    $0x45,%edi
   2b13d:	cd 80                	int    $0x80
   2b13f:	bf 53 00 00 00       	mov    $0x53,%edi
   2b144:	cd 80                	int    $0x80
   2b146:	cd 80                	int    $0x80
   2b148:	bf 20 00 00 00       	mov    $0x20,%edi
   2b14d:	cd 80                	int    $0x80
   2b14f:	bf 28 00 00 00       	mov    $0x28,%edi
   2b154:	cd 80                	int    $0x80
   2b156:	48 ff c3             	inc    %rbx
   2b159:	48 89 df             	mov    %rbx,%rdi
   2b15c:	e8 df f5 ff ff       	call   2a740 <_RNvCs2Lj2jyo7ES5_4doom9print_num>
   2b161:	b8 01 00 00 00       	mov    $0x1,%eax
   2b166:	bf 29 00 00 00       	mov    $0x29,%edi
   2b16b:	cd 80                	int    $0x80
   2b16d:	bf 0a 00 00 00       	mov    $0xa,%edi
   2b172:	cd 80                	int    $0x80
   2b174:	48 89 d8             	mov    %rbx,%rax
   2b177:	48 81 c4 80 00 00 00 	add    $0x80,%rsp
   2b17e:	5b                   	pop    %rbx
   2b17f:	c3                   	ret
   2b180:	b8 01 00 00 00       	mov    $0x1,%eax
   2b185:	bf 20 00 00 00       	mov    $0x20,%edi
   2b18a:	cd 80                	int    $0x80
   2b18c:	bf 2d 00 00 00       	mov    $0x2d,%edi
   2b191:	cd 80                	int    $0x80
   2b193:	bf 3e 00 00 00       	mov    $0x3e,%edi
   2b198:	cd 80                	int    $0x80
   2b19a:	bf 20 00 00 00       	mov    $0x20,%edi
   2b19f:	cd 80                	int    $0x80
   2b1a1:	bf 46 00 00 00       	mov    $0x46,%edi
   2b1a6:	cd 80                	int    $0x80
   2b1a8:	bf 41 00 00 00       	mov    $0x41,%edi
   2b1ad:	cd 80                	int    $0x80
   2b1af:	bf 49 00 00 00       	mov    $0x49,%edi
   2b1b4:	cd 80                	int    $0x80
   2b1b6:	bf 4c 00 00 00       	mov    $0x4c,%edi
   2b1bb:	cd 80                	int    $0x80
   2b1bd:	bf 45 00 00 00       	mov    $0x45,%edi
   2b1c2:	cd 80                	int    $0x80
   2b1c4:	bf 44 00 00 00       	mov    $0x44,%edi
   2b1c9:	cd 80                	int    $0x80
   2b1cb:	bf 0a 00 00 00       	mov    $0xa,%edi
   2b1d0:	cd 80                	int    $0x80
   2b1d2:	31 db                	xor    %ebx,%ebx
   2b1d4:	48 89 d8             	mov    %rbx,%rax
   2b1d7:	48 81 c4 80 00 00 00 	add    $0x80,%rsp
   2b1de:	5b                   	pop    %rbx
   2b1df:	c3                   	ret

000000000002b1e0 <fprintf>:
   2b1e0:	48 83 ec 58          	sub    $0x58,%rsp
   2b1e4:	48 89 f7             	mov    %rsi,%rdi
   2b1e7:	48 89 54 24 30       	mov    %rdx,0x30(%rsp)
   2b1ec:	48 89 4c 24 38       	mov    %rcx,0x38(%rsp)
   2b1f1:	4c 89 44 24 40       	mov    %r8,0x40(%rsp)
   2b1f6:	4c 89 4c 24 48       	mov    %r9,0x48(%rsp)
   2b1fb:	48 8d 44 24 20       	lea    0x20(%rsp),%rax
   2b200:	48 89 44 24 18       	mov    %rax,0x18(%rsp)
   2b205:	48 8d 44 24 60       	lea    0x60(%rsp),%rax
   2b20a:	48 89 44 24 10       	mov    %rax,0x10(%rsp)
   2b20f:	48 b8 10 00 00 00 30 	movabs $0x3000000010,%rax
   2b216:	00 00 00 
   2b219:	48 89 44 24 08       	mov    %rax,0x8(%rsp)
   2b21e:	48 8d 74 24 08       	lea    0x8(%rsp),%rsi
   2b223:	e8 38 f0 ff ff       	call   2a260 <_RNvCs2Lj2jyo7ES5_4doom12vprintf_core>
   2b228:	31 c0                	xor    %eax,%eax
   2b22a:	48 83 c4 58          	add    $0x58,%rsp
   2b22e:	c3                   	ret
   2b22f:	cc                   	int3

000000000002b230 <fread>:
   2b230:	48 85 c9             	test   %rcx,%rcx
   2b233:	74 34                	je     2b269 <fread+0x39>
   2b235:	49 89 f0             	mov    %rsi,%r8
   2b238:	48 89 fe             	mov    %rdi,%rsi
   2b23b:	48 ff c9             	dec    %rcx
   2b23e:	49 0f af d0          	imul   %r8,%rdx
   2b242:	b8 0d 00 00 00       	mov    $0xd,%eax
   2b247:	48 89 cf             	mov    %rcx,%rdi
   2b24a:	cd 80                	int    $0x80
   2b24c:	48 83 f8 ff          	cmp    $0xffffffffffffffff,%rax
   2b250:	74 17                	je     2b269 <fread+0x39>
   2b252:	4d 85 c0             	test   %r8,%r8
   2b255:	74 1b                	je     2b272 <fread+0x42>
   2b257:	48 89 c1             	mov    %rax,%rcx
   2b25a:	4c 09 c1             	or     %r8,%rcx
   2b25d:	48 c1 e9 20          	shr    $0x20,%rcx
   2b261:	74 09                	je     2b26c <fread+0x3c>
   2b263:	31 d2                	xor    %edx,%edx
   2b265:	49 f7 f0             	div    %r8
   2b268:	c3                   	ret
   2b269:	31 c0                	xor    %eax,%eax
   2b26b:	c3                   	ret
   2b26c:	31 d2                	xor    %edx,%edx
   2b26e:	41 f7 f0             	div    %r8d
   2b271:	c3                   	ret
   2b272:	50                   	push   %rax
   2b273:	48 8d 3d 46 bc 03 00 	lea    0x3bc46(%rip),%rdi        # 66ec0 <memset+0x1050>
   2b27a:	ff 15 c0 c2 03 00    	call   *0x3c2c0(%rip)        # 67540 <_DYNAMIC+0x110>

000000000002b280 <fseek>:
   2b280:	48 85 ff             	test   %rdi,%rdi
   2b283:	74 21                	je     2b2a6 <fseek+0x26>
   2b285:	50                   	push   %rax
   2b286:	48 ff cf             	dec    %rdi
   2b289:	48 63 d2             	movslq %edx,%rdx
   2b28c:	b8 0e 00 00 00       	mov    $0xe,%eax
   2b291:	cd 80                	int    $0x80
   2b293:	48 89 c1             	mov    %rax,%rcx
   2b296:	31 c0                	xor    %eax,%eax
   2b298:	48 83 f9 ff          	cmp    $0xffffffffffffffff,%rcx
   2b29c:	0f 94 c0             	sete   %al
   2b29f:	f7 d8                	neg    %eax
   2b2a1:	48 83 c4 08          	add    $0x8,%rsp
   2b2a5:	c3                   	ret
   2b2a6:	b8 ff ff ff ff       	mov    $0xffffffff,%eax
   2b2ab:	c3                   	ret
   2b2ac:	cc                   	int3
   2b2ad:	cc                   	int3
   2b2ae:	cc                   	int3
   2b2af:	cc                   	int3

000000000002b2b0 <ftell>:
   2b2b0:	50                   	push   %rax
   2b2b1:	48 85 ff             	test   %rdi,%rdi
   2b2b4:	74 13                	je     2b2c9 <ftell+0x19>
   2b2b6:	48 ff cf             	dec    %rdi
   2b2b9:	b8 0e 00 00 00       	mov    $0xe,%eax
   2b2be:	ba 01 00 00 00       	mov    $0x1,%edx
   2b2c3:	31 f6                	xor    %esi,%esi
   2b2c5:	cd 80                	int    $0x80
   2b2c7:	59                   	pop    %rcx
   2b2c8:	c3                   	ret
   2b2c9:	48 c7 c0 ff ff ff ff 	mov    $0xffffffffffffffff,%rax
   2b2d0:	59                   	pop    %rcx
   2b2d1:	c3                   	ret
   2b2d2:	cc                   	int3
   2b2d3:	cc                   	int3
   2b2d4:	cc                   	int3
   2b2d5:	cc                   	int3
   2b2d6:	cc                   	int3
   2b2d7:	cc                   	int3
   2b2d8:	cc                   	int3
   2b2d9:	cc                   	int3
   2b2da:	cc                   	int3
   2b2db:	cc                   	int3
   2b2dc:	cc                   	int3
   2b2dd:	cc                   	int3
   2b2de:	cc                   	int3
   2b2df:	cc                   	int3

000000000002b2e0 <fwrite>:
   2b2e0:	31 c0                	xor    %eax,%eax
   2b2e2:	c3                   	ret
   2b2e3:	cc                   	int3
   2b2e4:	cc                   	int3
   2b2e5:	cc                   	int3
   2b2e6:	cc                   	int3
   2b2e7:	cc                   	int3
   2b2e8:	cc                   	int3
   2b2e9:	cc                   	int3
   2b2ea:	cc                   	int3
   2b2eb:	cc                   	int3
   2b2ec:	cc                   	int3
   2b2ed:	cc                   	int3
   2b2ee:	cc                   	int3
   2b2ef:	cc                   	int3

000000000002b2f0 <malloc>:
   2b2f0:	48 8d 4f 0f          	lea    0xf(%rdi),%rcx
   2b2f4:	48 83 e1 f0          	and    $0xfffffffffffffff0,%rcx
   2b2f8:	48 8b 05 41 0a 05 01 	mov    0x1050a41(%rip),%rax        # 107bd40 <_RNvCs2Lj2jyo7ES5_4doom10MALLOC_PTR.0>
   2b2ff:	48 01 c1             	add    %rax,%rcx
   2b302:	48 81 f9 00 00 00 01 	cmp    $0x1000000,%rcx
   2b309:	0f 86 de 00 00 00    	jbe    2b3ed <malloc+0xfd>
   2b30f:	50                   	push   %rax
   2b310:	b8 01 00 00 00       	mov    $0x1,%eax
   2b315:	48 89 f9             	mov    %rdi,%rcx
   2b318:	bf 5b 00 00 00       	mov    $0x5b,%edi
   2b31d:	cd 80                	int    $0x80
   2b31f:	bf 44 00 00 00       	mov    $0x44,%edi
   2b324:	cd 80                	int    $0x80
   2b326:	bf 4f 00 00 00       	mov    $0x4f,%edi
   2b32b:	cd 80                	int    $0x80
   2b32d:	cd 80                	int    $0x80
   2b32f:	bf 4d 00 00 00       	mov    $0x4d,%edi
   2b334:	cd 80                	int    $0x80
   2b336:	bf 5d 00 00 00       	mov    $0x5d,%edi
   2b33b:	cd 80                	int    $0x80
   2b33d:	bf 20 00 00 00       	mov    $0x20,%edi
   2b342:	cd 80                	int    $0x80
   2b344:	bf 6d 00 00 00       	mov    $0x6d,%edi
   2b349:	cd 80                	int    $0x80
   2b34b:	bf 61 00 00 00       	mov    $0x61,%edi
   2b350:	cd 80                	int    $0x80
   2b352:	bf 6c 00 00 00       	mov    $0x6c,%edi
   2b357:	cd 80                	int    $0x80
   2b359:	cd 80                	int    $0x80
   2b35b:	bf 6f 00 00 00       	mov    $0x6f,%edi
   2b360:	cd 80                	int    $0x80
   2b362:	bf 63 00 00 00       	mov    $0x63,%edi
   2b367:	cd 80                	int    $0x80
   2b369:	bf 20 00 00 00       	mov    $0x20,%edi
   2b36e:	cd 80                	int    $0x80
   2b370:	bf 66 00 00 00       	mov    $0x66,%edi
   2b375:	cd 80                	int    $0x80
   2b377:	bf 61 00 00 00       	mov    $0x61,%edi
   2b37c:	cd 80                	int    $0x80
   2b37e:	bf 69 00 00 00       	mov    $0x69,%edi
   2b383:	cd 80                	int    $0x80
   2b385:	bf 6c 00 00 00       	mov    $0x6c,%edi
   2b38a:	cd 80                	int    $0x80
   2b38c:	bf 65 00 00 00       	mov    $0x65,%edi
   2b391:	cd 80                	int    $0x80
   2b393:	bf 64 00 00 00       	mov    $0x64,%edi
   2b398:	cd 80                	int    $0x80
   2b39a:	bf 21 00 00 00       	mov    $0x21,%edi
   2b39f:	cd 80                	int    $0x80
   2b3a1:	bf 20 00 00 00       	mov    $0x20,%edi
   2b3a6:	cd 80                	int    $0x80
   2b3a8:	bf 73 00 00 00       	mov    $0x73,%edi
   2b3ad:	cd 80                	int    $0x80
   2b3af:	bf 69 00 00 00       	mov    $0x69,%edi
   2b3b4:	cd 80                	int    $0x80
   2b3b6:	bf 7a 00 00 00       	mov    $0x7a,%edi
   2b3bb:	cd 80                	int    $0x80
   2b3bd:	bf 65 00 00 00       	mov    $0x65,%edi
   2b3c2:	cd 80                	int    $0x80
   2b3c4:	bf 3a 00 00 00       	mov    $0x3a,%edi
   2b3c9:	cd 80                	int    $0x80
   2b3cb:	bf 20 00 00 00       	mov    $0x20,%edi
   2b3d0:	cd 80                	int    $0x80
   2b3d2:	48 89 cf             	mov    %rcx,%rdi
   2b3d5:	e8 66 f3 ff ff       	call   2a740 <_RNvCs2Lj2jyo7ES5_4doom9print_num>
   2b3da:	b8 01 00 00 00       	mov    $0x1,%eax
   2b3df:	bf 0a 00 00 00       	mov    $0xa,%edi
   2b3e4:	cd 80                	int    $0x80
   2b3e6:	31 c0                	xor    %eax,%eax
   2b3e8:	48 83 c4 08          	add    $0x8,%rsp
   2b3ec:	c3                   	ret
   2b3ed:	48 8d 15 4c 09 05 00 	lea    0x5094c(%rip),%rdx        # 7bd40 <_RNvCs2Lj2jyo7ES5_4doom13MALLOC_BUFFER>
   2b3f4:	48 01 d0             	add    %rdx,%rax
   2b3f7:	48 89 0d 42 09 05 01 	mov    %rcx,0x1050942(%rip)        # 107bd40 <_RNvCs2Lj2jyo7ES5_4doom10MALLOC_PTR.0>
   2b3fe:	c3                   	ret
   2b3ff:	cc                   	int3

000000000002b400 <mkdir>:
   2b400:	31 c0                	xor    %eax,%eax
   2b402:	c3                   	ret
   2b403:	cc                   	int3
   2b404:	cc                   	int3
   2b405:	cc                   	int3
   2b406:	cc                   	int3
   2b407:	cc                   	int3
   2b408:	cc                   	int3
   2b409:	cc                   	int3
   2b40a:	cc                   	int3
   2b40b:	cc                   	int3
   2b40c:	cc                   	int3
   2b40d:	cc                   	int3
   2b40e:	cc                   	int3
   2b40f:	cc                   	int3

000000000002b410 <printf>:
   2b410:	48 83 ec 58          	sub    $0x58,%rsp
   2b414:	48 89 74 24 28       	mov    %rsi,0x28(%rsp)
   2b419:	48 89 54 24 30       	mov    %rdx,0x30(%rsp)
   2b41e:	48 89 4c 24 38       	mov    %rcx,0x38(%rsp)
   2b423:	4c 89 44 24 40       	mov    %r8,0x40(%rsp)
   2b428:	4c 89 4c 24 48       	mov    %r9,0x48(%rsp)
   2b42d:	48 8d 44 24 20       	lea    0x20(%rsp),%rax
   2b432:	48 89 44 24 18       	mov    %rax,0x18(%rsp)
   2b437:	48 8d 44 24 60       	lea    0x60(%rsp),%rax
   2b43c:	48 89 44 24 10       	mov    %rax,0x10(%rsp)
   2b441:	48 b8 08 00 00 00 30 	movabs $0x3000000008,%rax
   2b448:	00 00 00 
   2b44b:	48 89 44 24 08       	mov    %rax,0x8(%rsp)
   2b450:	48 8d 74 24 08       	lea    0x8(%rsp),%rsi
   2b455:	e8 06 ee ff ff       	call   2a260 <_RNvCs2Lj2jyo7ES5_4doom12vprintf_core>
   2b45a:	31 c0                	xor    %eax,%eax
   2b45c:	48 83 c4 58          	add    $0x58,%rsp
   2b460:	c3                   	ret
   2b461:	cc                   	int3
   2b462:	cc                   	int3
   2b463:	cc                   	int3
   2b464:	cc                   	int3
   2b465:	cc                   	int3
   2b466:	cc                   	int3
   2b467:	cc                   	int3
   2b468:	cc                   	int3
   2b469:	cc                   	int3
   2b46a:	cc                   	int3
   2b46b:	cc                   	int3
   2b46c:	cc                   	int3
   2b46d:	cc                   	int3
   2b46e:	cc                   	int3
   2b46f:	cc                   	int3

000000000002b470 <putchar>:
   2b470:	50                   	push   %rax
   2b471:	89 f9                	mov    %edi,%ecx
   2b473:	0f b6 f9             	movzbl %cl,%edi
   2b476:	b8 01 00 00 00       	mov    $0x1,%eax
   2b47b:	cd 80                	int    $0x80
   2b47d:	89 c8                	mov    %ecx,%eax
   2b47f:	59                   	pop    %rcx
   2b480:	c3                   	ret
   2b481:	cc                   	int3
   2b482:	cc                   	int3
   2b483:	cc                   	int3
   2b484:	cc                   	int3
   2b485:	cc                   	int3
   2b486:	cc                   	int3
   2b487:	cc                   	int3
   2b488:	cc                   	int3
   2b489:	cc                   	int3
   2b48a:	cc                   	int3
   2b48b:	cc                   	int3
   2b48c:	cc                   	int3
   2b48d:	cc                   	int3
   2b48e:	cc                   	int3
   2b48f:	cc                   	int3

000000000002b490 <puts>:
   2b490:	50                   	push   %rax
   2b491:	0f b6 07             	movzbl (%rdi),%eax
   2b494:	84 c0                	test   %al,%al
   2b496:	74 1c                	je     2b4b4 <puts+0x24>
   2b498:	48 89 f9             	mov    %rdi,%rcx
   2b49b:	48 ff c1             	inc    %rcx
   2b49e:	66 90                	xchg   %ax,%ax
   2b4a0:	0f b6 f8             	movzbl %al,%edi
   2b4a3:	b8 01 00 00 00       	mov    $0x1,%eax
   2b4a8:	cd 80                	int    $0x80
   2b4aa:	0f b6 01             	movzbl (%rcx),%eax
   2b4ad:	48 ff c1             	inc    %rcx
   2b4b0:	84 c0                	test   %al,%al
   2b4b2:	75 ec                	jne    2b4a0 <puts+0x10>
   2b4b4:	b8 01 00 00 00       	mov    $0x1,%eax
   2b4b9:	bf 0a 00 00 00       	mov    $0xa,%edi
   2b4be:	cd 80                	int    $0x80
   2b4c0:	31 c0                	xor    %eax,%eax
   2b4c2:	59                   	pop    %rcx
   2b4c3:	c3                   	ret
   2b4c4:	cc                   	int3
   2b4c5:	cc                   	int3
   2b4c6:	cc                   	int3
   2b4c7:	cc                   	int3
   2b4c8:	cc                   	int3
   2b4c9:	cc                   	int3
   2b4ca:	cc                   	int3
   2b4cb:	cc                   	int3
   2b4cc:	cc                   	int3
   2b4cd:	cc                   	int3
   2b4ce:	cc                   	int3
   2b4cf:	cc                   	int3

000000000002b4d0 <realloc>:
   2b4d0:	55                   	push   %rbp
   2b4d1:	53                   	push   %rbx
   2b4d2:	50                   	push   %rax
   2b4d3:	48 89 fb             	mov    %rdi,%rbx
   2b4d6:	48 85 ff             	test   %rdi,%rdi
   2b4d9:	40 0f 95 c5          	setne  %bpl
   2b4dd:	48 89 f7             	mov    %rsi,%rdi
   2b4e0:	e8 0b fe ff ff       	call   2b2f0 <malloc>
   2b4e5:	48 85 c0             	test   %rax,%rax
   2b4e8:	0f 95 c1             	setne  %cl
   2b4eb:	40 84 cd             	test   %cl,%bpl
   2b4ee:	74 0e                	je     2b4fe <realloc+0x2e>
   2b4f0:	48 8b 0b             	mov    (%rbx),%rcx
   2b4f3:	48 8b 53 08          	mov    0x8(%rbx),%rdx
   2b4f7:	48 89 50 08          	mov    %rdx,0x8(%rax)
   2b4fb:	48 89 08             	mov    %rcx,(%rax)
   2b4fe:	48 83 c4 08          	add    $0x8,%rsp
   2b502:	5b                   	pop    %rbx
   2b503:	5d                   	pop    %rbp
   2b504:	c3                   	ret
   2b505:	cc                   	int3
   2b506:	cc                   	int3
   2b507:	cc                   	int3
   2b508:	cc                   	int3
   2b509:	cc                   	int3
   2b50a:	cc                   	int3
   2b50b:	cc                   	int3
   2b50c:	cc                   	int3
   2b50d:	cc                   	int3
   2b50e:	cc                   	int3
   2b50f:	cc                   	int3

000000000002b510 <rename>:
   2b510:	31 c0                	xor    %eax,%eax
   2b512:	c3                   	ret
   2b513:	cc                   	int3
   2b514:	cc                   	int3
   2b515:	cc                   	int3
   2b516:	cc                   	int3
   2b517:	cc                   	int3
   2b518:	cc                   	int3
   2b519:	cc                   	int3
   2b51a:	cc                   	int3
   2b51b:	cc                   	int3
   2b51c:	cc                   	int3
   2b51d:	cc                   	int3
   2b51e:	cc                   	int3
   2b51f:	cc                   	int3

000000000002b520 <snprintf>:
   2b520:	48 83 ec 58          	sub    $0x58,%rsp
   2b524:	48 89 4c 24 38       	mov    %rcx,0x38(%rsp)
   2b529:	4c 89 44 24 40       	mov    %r8,0x40(%rsp)
   2b52e:	4c 89 4c 24 48       	mov    %r9,0x48(%rsp)
   2b533:	48 8d 44 24 20       	lea    0x20(%rsp),%rax
   2b538:	48 89 44 24 18       	mov    %rax,0x18(%rsp)
   2b53d:	48 8d 44 24 60       	lea    0x60(%rsp),%rax
   2b542:	48 89 44 24 10       	mov    %rax,0x10(%rsp)
   2b547:	48 b8 18 00 00 00 30 	movabs $0x3000000018,%rax
   2b54e:	00 00 00 
   2b551:	48 89 44 24 08       	mov    %rax,0x8(%rsp)
   2b556:	48 8d 4c 24 08       	lea    0x8(%rsp),%rcx
   2b55b:	e8 a0 04 00 00       	call   2ba00 <vsnprintf>
   2b560:	48 83 c4 58          	add    $0x58,%rsp
   2b564:	c3                   	ret
   2b565:	cc                   	int3
   2b566:	cc                   	int3
   2b567:	cc                   	int3
   2b568:	cc                   	int3
   2b569:	cc                   	int3
   2b56a:	cc                   	int3
   2b56b:	cc                   	int3
   2b56c:	cc                   	int3
   2b56d:	cc                   	int3
   2b56e:	cc                   	int3
   2b56f:	cc                   	int3

000000000002b570 <sscanf>:
   2b570:	53                   	push   %rbx
   2b571:	48 83 ec 50          	sub    $0x50,%rsp
   2b575:	48 89 54 24 30       	mov    %rdx,0x30(%rsp)
   2b57a:	48 89 4c 24 38       	mov    %rcx,0x38(%rsp)
   2b57f:	4c 89 44 24 40       	mov    %r8,0x40(%rsp)
   2b584:	4c 89 4c 24 48       	mov    %r9,0x48(%rsp)
   2b589:	48 8d 44 24 20       	lea    0x20(%rsp),%rax
   2b58e:	48 89 44 24 18       	mov    %rax,0x18(%rsp)
   2b593:	48 8d 44 24 60       	lea    0x60(%rsp),%rax
   2b598:	48 89 44 24 10       	mov    %rax,0x10(%rsp)
   2b59d:	48 b8 10 00 00 00 30 	movabs $0x3000000010,%rax
   2b5a4:	00 00 00 
   2b5a7:	48 89 44 24 08       	mov    %rax,0x8(%rsp)
   2b5ac:	31 c0                	xor    %eax,%eax
   2b5ae:	48 b9 00 36 00 00 01 	movabs $0x100003600,%rcx
   2b5b5:	00 00 00 
   2b5b8:	48 ba 01 36 00 00 01 	movabs $0x100003601,%rdx
   2b5bf:	00 00 00 
   2b5c2:	eb 0f                	jmp    2b5d3 <sscanf+0x63>
   2b5c4:	66 66 66 2e 0f 1f 84 	data16 data16 cs nopw 0x0(%rax,%rax,1)
   2b5cb:	00 00 00 00 00 
   2b5d0:	48 ff c6             	inc    %rsi
   2b5d3:	44 0f b6 06          	movzbl (%rsi),%r8d
   2b5d7:	49 83 f8 25          	cmp    $0x25,%r8
   2b5db:	77 7f                	ja     2b65c <sscanf+0xec>
   2b5dd:	4c 0f a3 c1          	bt     %r8,%rcx
   2b5e1:	73 2d                	jae    2b610 <sscanf+0xa0>
   2b5e3:	66 66 66 66 2e 0f 1f 	data16 data16 data16 cs nopw 0x0(%rax,%rax,1)
   2b5ea:	84 00 00 00 00 00 
   2b5f0:	44 0f b6 07          	movzbl (%rdi),%r8d
   2b5f4:	49 83 f8 20          	cmp    $0x20,%r8
   2b5f8:	77 d6                	ja     2b5d0 <sscanf+0x60>
   2b5fa:	4c 0f a3 c1          	bt     %r8,%rcx
   2b5fe:	73 d0                	jae    2b5d0 <sscanf+0x60>
   2b600:	48 ff c7             	inc    %rdi
   2b603:	44 0f b6 07          	movzbl (%rdi),%r8d
   2b607:	49 83 f8 20          	cmp    $0x20,%r8
   2b60b:	76 ed                	jbe    2b5fa <sscanf+0x8a>
   2b60d:	eb c1                	jmp    2b5d0 <sscanf+0x60>
   2b60f:	90                   	nop
   2b610:	49 83 f8 25          	cmp    $0x25,%r8
   2b614:	75 3d                	jne    2b653 <sscanf+0xe3>
   2b616:	44 0f b6 46 01       	movzbl 0x1(%rsi),%r8d
   2b61b:	48 ff c6             	inc    %rsi
   2b61e:	41 83 f8 64          	cmp    $0x64,%r8d
   2b622:	74 4c                	je     2b670 <sscanf+0x100>
   2b624:	41 83 f8 73          	cmp    $0x73,%r8d
   2b628:	0f 85 74 01 00 00    	jne    2b7a2 <sscanf+0x232>
   2b62e:	44 8b 4c 24 08       	mov    0x8(%rsp),%r9d
   2b633:	49 83 f9 29          	cmp    $0x29,%r9
   2b637:	0f 83 a4 00 00 00    	jae    2b6e1 <sscanf+0x171>
   2b63d:	4d 89 c8             	mov    %r9,%r8
   2b640:	4c 03 44 24 18       	add    0x18(%rsp),%r8
   2b645:	41 83 c1 08          	add    $0x8,%r9d
   2b649:	44 89 4c 24 08       	mov    %r9d,0x8(%rsp)
   2b64e:	e9 9c 00 00 00       	jmp    2b6ef <sscanf+0x17f>
   2b653:	4d 85 c0             	test   %r8,%r8
   2b656:	0f 84 46 01 00 00    	je     2b7a2 <sscanf+0x232>
   2b65c:	44 38 07             	cmp    %r8b,(%rdi)
   2b65f:	0f 85 3d 01 00 00    	jne    2b7a2 <sscanf+0x232>
   2b665:	48 ff c7             	inc    %rdi
   2b668:	48 ff c6             	inc    %rsi
   2b66b:	e9 63 ff ff ff       	jmp    2b5d3 <sscanf+0x63>
   2b670:	44 8b 4c 24 08       	mov    0x8(%rsp),%r9d
   2b675:	49 83 f9 29          	cmp    $0x29,%r9
   2b679:	73 13                	jae    2b68e <sscanf+0x11e>
   2b67b:	4d 89 c8             	mov    %r9,%r8
   2b67e:	4c 03 44 24 18       	add    0x18(%rsp),%r8
   2b683:	41 83 c1 08          	add    $0x8,%r9d
   2b687:	44 89 4c 24 08       	mov    %r9d,0x8(%rsp)
   2b68c:	eb 0e                	jmp    2b69c <sscanf+0x12c>
   2b68e:	4c 8b 44 24 10       	mov    0x10(%rsp),%r8
   2b693:	4d 8d 48 08          	lea    0x8(%r8),%r9
   2b697:	4c 89 4c 24 10       	mov    %r9,0x10(%rsp)
   2b69c:	4d 8b 00             	mov    (%r8),%r8
   2b69f:	90                   	nop
   2b6a0:	48 ff c7             	inc    %rdi
   2b6a3:	44 0f b6 4f ff       	movzbl -0x1(%rdi),%r9d
   2b6a8:	49 83 f9 2d          	cmp    $0x2d,%r9
   2b6ac:	0f 87 9d 00 00 00    	ja     2b74f <sscanf+0x1df>
   2b6b2:	4c 0f a3 c9          	bt     %r9,%rcx
   2b6b6:	72 e8                	jb     2b6a0 <sscanf+0x130>
   2b6b8:	49 83 f9 2d          	cmp    $0x2d,%r9
   2b6bc:	0f 85 8d 00 00 00    	jne    2b74f <sscanf+0x1df>
   2b6c2:	44 0f b6 0f          	movzbl (%rdi),%r9d
   2b6c6:	41 ba ff ff ff ff    	mov    $0xffffffff,%r10d
   2b6cc:	41 8d 59 d0          	lea    -0x30(%r9),%ebx
   2b6d0:	45 31 db             	xor    %r11d,%r11d
   2b6d3:	80 fb 09             	cmp    $0x9,%bl
   2b6d6:	0f 86 88 00 00 00    	jbe    2b764 <sscanf+0x1f4>
   2b6dc:	e9 b0 00 00 00       	jmp    2b791 <sscanf+0x221>
   2b6e1:	4c 8b 44 24 10       	mov    0x10(%rsp),%r8
   2b6e6:	4d 8d 48 08          	lea    0x8(%r8),%r9
   2b6ea:	4c 89 4c 24 10       	mov    %r9,0x10(%rsp)
   2b6ef:	4d 8b 00             	mov    (%r8),%r8
   2b6f2:	44 0f b6 0f          	movzbl (%rdi),%r9d
   2b6f6:	49 83 f9 20          	cmp    $0x20,%r9
   2b6fa:	77 17                	ja     2b713 <sscanf+0x1a3>
   2b6fc:	0f 1f 40 00          	nopl   0x0(%rax)
   2b700:	4c 0f a3 c9          	bt     %r9,%rcx
   2b704:	73 0d                	jae    2b713 <sscanf+0x1a3>
   2b706:	48 ff c7             	inc    %rdi
   2b709:	44 0f b6 0f          	movzbl (%rdi),%r9d
   2b70d:	49 83 f9 20          	cmp    $0x20,%r9
   2b711:	76 ed                	jbe    2b700 <sscanf+0x190>
   2b713:	45 31 d2             	xor    %r10d,%r10d
   2b716:	eb 15                	jmp    2b72d <sscanf+0x1bd>
   2b718:	0f 1f 84 00 00 00 00 	nopl   0x0(%rax,%rax,1)
   2b71f:	00 
   2b720:	47 88 0c 10          	mov    %r9b,(%r8,%r10,1)
   2b724:	46 0f b6 4c 17 01    	movzbl 0x1(%rdi,%r10,1),%r9d
   2b72a:	49 ff c2             	inc    %r10
   2b72d:	41 80 f9 20          	cmp    $0x20,%r9b
   2b731:	77 ed                	ja     2b720 <sscanf+0x1b0>
   2b733:	45 0f b6 d9          	movzbl %r9b,%r11d
   2b737:	4c 0f a3 da          	bt     %r11,%rdx
   2b73b:	73 e3                	jae    2b720 <sscanf+0x1b0>
   2b73d:	43 c6 04 10 00       	movb   $0x0,(%r8,%r10,1)
   2b742:	ff c0                	inc    %eax
   2b744:	4c 01 d7             	add    %r10,%rdi
   2b747:	48 ff c6             	inc    %rsi
   2b74a:	e9 84 fe ff ff       	jmp    2b5d3 <sscanf+0x63>
   2b74f:	48 ff cf             	dec    %rdi
   2b752:	41 ba 01 00 00 00    	mov    $0x1,%r10d
   2b758:	41 8d 59 d0          	lea    -0x30(%r9),%ebx
   2b75c:	45 31 db             	xor    %r11d,%r11d
   2b75f:	80 fb 09             	cmp    $0x9,%bl
   2b762:	77 2d                	ja     2b791 <sscanf+0x221>
   2b764:	45 31 db             	xor    %r11d,%r11d
   2b767:	66 0f 1f 84 00 00 00 	nopw   0x0(%rax,%rax,1)
   2b76e:	00 00 
   2b770:	47 8d 1c 9b          	lea    (%r11,%r11,4),%r11d
   2b774:	41 80 c1 d0          	add    $0xd0,%r9b
   2b778:	45 0f b6 c9          	movzbl %r9b,%r9d
   2b77c:	47 8d 1c 59          	lea    (%r9,%r11,2),%r11d
   2b780:	44 0f b6 4f 01       	movzbl 0x1(%rdi),%r9d
   2b785:	48 ff c7             	inc    %rdi
   2b788:	41 8d 59 d0          	lea    -0x30(%r9),%ebx
   2b78c:	80 fb 0a             	cmp    $0xa,%bl
   2b78f:	72 df                	jb     2b770 <sscanf+0x200>
   2b791:	45 0f af da          	imul   %r10d,%r11d
   2b795:	45 89 18             	mov    %r11d,(%r8)
   2b798:	ff c0                	inc    %eax
   2b79a:	48 ff c6             	inc    %rsi
   2b79d:	e9 31 fe ff ff       	jmp    2b5d3 <sscanf+0x63>
   2b7a2:	48 83 c4 50          	add    $0x50,%rsp
   2b7a6:	5b                   	pop    %rbx
   2b7a7:	c3                   	ret
   2b7a8:	cc                   	int3
   2b7a9:	cc                   	int3
   2b7aa:	cc                   	int3
   2b7ab:	cc                   	int3
   2b7ac:	cc                   	int3
   2b7ad:	cc                   	int3
   2b7ae:	cc                   	int3
   2b7af:	cc                   	int3

000000000002b7b0 <strcasecmp>:
   2b7b0:	31 c0                	xor    %eax,%eax
   2b7b2:	66 66 66 66 66 2e 0f 	data16 data16 data16 data16 cs nopw 0x0(%rax,%rax,1)
   2b7b9:	1f 84 00 00 00 00 00 
   2b7c0:	44 0f b6 04 07       	movzbl (%rdi,%rax,1),%r8d
   2b7c5:	41 8d 48 bf          	lea    -0x41(%r8),%ecx
   2b7c9:	80 f9 1a             	cmp    $0x1a,%cl
   2b7cc:	0f 92 c1             	setb   %cl
   2b7cf:	c0 e1 05             	shl    $0x5,%cl
   2b7d2:	44 0f b6 0c 06       	movzbl (%rsi,%rax,1),%r9d
   2b7d7:	41 8d 51 bf          	lea    -0x41(%r9),%edx
   2b7db:	80 fa 1a             	cmp    $0x1a,%dl
   2b7de:	0f 92 c2             	setb   %dl
   2b7e1:	c0 e2 05             	shl    $0x5,%dl
   2b7e4:	44 08 ca             	or     %r9b,%dl
   2b7e7:	44 08 c1             	or     %r8b,%cl
   2b7ea:	74 07                	je     2b7f3 <strcasecmp+0x43>
   2b7ec:	48 ff c0             	inc    %rax
   2b7ef:	38 d1                	cmp    %dl,%cl
   2b7f1:	74 cd                	je     2b7c0 <strcasecmp+0x10>
   2b7f3:	0f b6 c1             	movzbl %cl,%eax
   2b7f6:	0f b6 ca             	movzbl %dl,%ecx
   2b7f9:	29 c8                	sub    %ecx,%eax
   2b7fb:	c3                   	ret
   2b7fc:	cc                   	int3
   2b7fd:	cc                   	int3
   2b7fe:	cc                   	int3
   2b7ff:	cc                   	int3

000000000002b800 <strchr>:
   2b800:	48 89 f8             	mov    %rdi,%rax
   2b803:	0f be 17             	movsbl (%rdi),%edx
   2b806:	31 c9                	xor    %ecx,%ecx
   2b808:	39 d6                	cmp    %edx,%esi
   2b80a:	74 14                	je     2b820 <strchr+0x20>
   2b80c:	0f 1f 40 00          	nopl   0x0(%rax)
   2b810:	84 d2                	test   %dl,%dl
   2b812:	74 10                	je     2b824 <strchr+0x24>
   2b814:	0f be 54 08 01       	movsbl 0x1(%rax,%rcx,1),%edx
   2b819:	48 ff c1             	inc    %rcx
   2b81c:	39 d6                	cmp    %edx,%esi
   2b81e:	75 f0                	jne    2b810 <strchr+0x10>
   2b820:	48 01 c8             	add    %rcx,%rax
   2b823:	c3                   	ret
   2b824:	31 c0                	xor    %eax,%eax
   2b826:	c3                   	ret
   2b827:	cc                   	int3
   2b828:	cc                   	int3
   2b829:	cc                   	int3
   2b82a:	cc                   	int3
   2b82b:	cc                   	int3
   2b82c:	cc                   	int3
   2b82d:	cc                   	int3
   2b82e:	cc                   	int3
   2b82f:	cc                   	int3

000000000002b830 <strcmp>:
   2b830:	31 c9                	xor    %ecx,%ecx
   2b832:	66 66 66 66 66 2e 0f 	data16 data16 data16 data16 cs nopw 0x0(%rax,%rax,1)
   2b839:	1f 84 00 00 00 00 00 
   2b840:	0f b6 04 0f          	movzbl (%rdi,%rcx,1),%eax
   2b844:	0f b6 14 0e          	movzbl (%rsi,%rcx,1),%edx
   2b848:	85 c0                	test   %eax,%eax
   2b84a:	74 07                	je     2b853 <strcmp+0x23>
   2b84c:	48 ff c1             	inc    %rcx
   2b84f:	38 d0                	cmp    %dl,%al
   2b851:	74 ed                	je     2b840 <strcmp+0x10>
   2b853:	0f b6 ca             	movzbl %dl,%ecx
   2b856:	29 c8                	sub    %ecx,%eax
   2b858:	c3                   	ret
   2b859:	cc                   	int3
   2b85a:	cc                   	int3
   2b85b:	cc                   	int3
   2b85c:	cc                   	int3
   2b85d:	cc                   	int3
   2b85e:	cc                   	int3
   2b85f:	cc                   	int3

000000000002b860 <strdup>:
   2b860:	41 56                	push   %r14
   2b862:	53                   	push   %rbx
   2b863:	50                   	push   %rax
   2b864:	48 89 fb             	mov    %rdi,%rbx
   2b867:	e8 34 00 00 00       	call   2b8a0 <strlen>
   2b86c:	49 89 c6             	mov    %rax,%r14
   2b86f:	49 ff c6             	inc    %r14
   2b872:	4c 89 f7             	mov    %r14,%rdi
   2b875:	e8 76 fa ff ff       	call   2b2f0 <malloc>
   2b87a:	48 85 c0             	test   %rax,%rax
   2b87d:	74 16                	je     2b895 <strdup+0x35>
   2b87f:	48 89 c7             	mov    %rax,%rdi
   2b882:	48 89 de             	mov    %rbx,%rsi
   2b885:	4c 89 f2             	mov    %r14,%rdx
   2b888:	48 83 c4 08          	add    $0x8,%rsp
   2b88c:	5b                   	pop    %rbx
   2b88d:	41 5e                	pop    %r14
   2b88f:	ff 25 b3 bc 03 00    	jmp    *0x3bcb3(%rip)        # 67548 <_DYNAMIC+0x118>
   2b895:	48 83 c4 08          	add    $0x8,%rsp
   2b899:	5b                   	pop    %rbx
   2b89a:	41 5e                	pop    %r14
   2b89c:	c3                   	ret
   2b89d:	cc                   	int3
   2b89e:	cc                   	int3
   2b89f:	cc                   	int3

000000000002b8a0 <strlen>:
   2b8a0:	48 c7 c0 ff ff ff ff 	mov    $0xffffffffffffffff,%rax
   2b8a7:	66 0f 1f 84 00 00 00 	nopw   0x0(%rax,%rax,1)
   2b8ae:	00 00 
   2b8b0:	80 7c 07 01 00       	cmpb   $0x0,0x1(%rdi,%rax,1)
   2b8b5:	48 8d 40 01          	lea    0x1(%rax),%rax
   2b8b9:	75 f5                	jne    2b8b0 <strlen+0x10>
   2b8bb:	c3                   	ret
   2b8bc:	cc                   	int3
   2b8bd:	cc                   	int3
   2b8be:	cc                   	int3
   2b8bf:	cc                   	int3

000000000002b8c0 <strncasecmp>:
   2b8c0:	31 c0                	xor    %eax,%eax
   2b8c2:	31 c9                	xor    %ecx,%ecx
   2b8c4:	66 66 66 2e 0f 1f 84 	data16 data16 cs nopw 0x0(%rax,%rax,1)
   2b8cb:	00 00 00 00 00 
   2b8d0:	48 39 ca             	cmp    %rcx,%rdx
   2b8d3:	74 44                	je     2b919 <strncasecmp+0x59>
   2b8d5:	44 0f b6 14 0f       	movzbl (%rdi,%rcx,1),%r10d
   2b8da:	45 8d 42 bf          	lea    -0x41(%r10),%r8d
   2b8de:	41 80 f8 1a          	cmp    $0x1a,%r8b
   2b8e2:	41 0f 92 c0          	setb   %r8b
   2b8e6:	41 c0 e0 05          	shl    $0x5,%r8b
   2b8ea:	44 0f b6 1c 0e       	movzbl (%rsi,%rcx,1),%r11d
   2b8ef:	45 8d 4b bf          	lea    -0x41(%r11),%r9d
   2b8f3:	41 80 f9 1a          	cmp    $0x1a,%r9b
   2b8f7:	41 0f 92 c1          	setb   %r9b
   2b8fb:	41 c0 e1 05          	shl    $0x5,%r9b
   2b8ff:	45 08 d9             	or     %r11b,%r9b
   2b902:	45 08 d0             	or     %r10b,%r8b
   2b905:	74 08                	je     2b90f <strncasecmp+0x4f>
   2b907:	48 ff c1             	inc    %rcx
   2b90a:	45 38 c8             	cmp    %r9b,%r8b
   2b90d:	74 c1                	je     2b8d0 <strncasecmp+0x10>
   2b90f:	41 0f b6 c0          	movzbl %r8b,%eax
   2b913:	41 0f b6 c9          	movzbl %r9b,%ecx
   2b917:	29 c8                	sub    %ecx,%eax
   2b919:	c3                   	ret
   2b91a:	cc                   	int3
   2b91b:	cc                   	int3
   2b91c:	cc                   	int3
   2b91d:	cc                   	int3
   2b91e:	cc                   	int3
   2b91f:	cc                   	int3

000000000002b920 <strncmp>:
   2b920:	48 85 d2             	test   %rdx,%rdx
   2b923:	74 25                	je     2b94a <strncmp+0x2a>
   2b925:	31 c9                	xor    %ecx,%ecx
   2b927:	66 0f 1f 84 00 00 00 	nopw   0x0(%rax,%rax,1)
   2b92e:	00 00 
   2b930:	0f b6 04 0f          	movzbl (%rdi,%rcx,1),%eax
   2b934:	44 0f b6 04 0e       	movzbl (%rsi,%rcx,1),%r8d
   2b939:	85 c0                	test   %eax,%eax
   2b93b:	74 10                	je     2b94d <strncmp+0x2d>
   2b93d:	44 38 c0             	cmp    %r8b,%al
   2b940:	75 0b                	jne    2b94d <strncmp+0x2d>
   2b942:	48 ff c1             	inc    %rcx
   2b945:	48 39 ca             	cmp    %rcx,%rdx
   2b948:	75 e6                	jne    2b930 <strncmp+0x10>
   2b94a:	31 c0                	xor    %eax,%eax
   2b94c:	c3                   	ret
   2b94d:	41 0f b6 c8          	movzbl %r8b,%ecx
   2b951:	29 c8                	sub    %ecx,%eax
   2b953:	c3                   	ret
   2b954:	cc                   	int3
   2b955:	cc                   	int3
   2b956:	cc                   	int3
   2b957:	cc                   	int3
   2b958:	cc                   	int3
   2b959:	cc                   	int3
   2b95a:	cc                   	int3
   2b95b:	cc                   	int3
   2b95c:	cc                   	int3
   2b95d:	cc                   	int3
   2b95e:	cc                   	int3
   2b95f:	cc                   	int3

000000000002b960 <strncpy>:
   2b960:	48 89 f8             	mov    %rdi,%rax
   2b963:	31 ff                	xor    %edi,%edi
   2b965:	48 85 d2             	test   %rdx,%rdx
   2b968:	74 1a                	je     2b984 <strncpy+0x24>
   2b96a:	66 0f 1f 44 00 00    	nopw   0x0(%rax,%rax,1)
   2b970:	0f b6 0c 3e          	movzbl (%rsi,%rdi,1),%ecx
   2b974:	84 c9                	test   %cl,%cl
   2b976:	74 0c                	je     2b984 <strncpy+0x24>
   2b978:	88 0c 38             	mov    %cl,(%rax,%rdi,1)
   2b97b:	48 ff c7             	inc    %rdi
   2b97e:	48 39 fa             	cmp    %rdi,%rdx
   2b981:	75 ed                	jne    2b970 <strncpy+0x10>
   2b983:	c3                   	ret
   2b984:	48 29 fa             	sub    %rdi,%rdx
   2b987:	76 fa                	jbe    2b983 <strncpy+0x23>
   2b989:	53                   	push   %rbx
   2b98a:	48 01 c7             	add    %rax,%rdi
   2b98d:	31 f6                	xor    %esi,%esi
   2b98f:	48 89 c3             	mov    %rax,%rbx
   2b992:	ff 15 98 bb 03 00    	call   *0x3bb98(%rip)        # 67530 <_DYNAMIC+0x100>
   2b998:	48 89 d8             	mov    %rbx,%rax
   2b99b:	5b                   	pop    %rbx
   2b99c:	c3                   	ret
   2b99d:	cc                   	int3
   2b99e:	cc                   	int3
   2b99f:	cc                   	int3

000000000002b9a0 <strrchr>:
   2b9a0:	0f b6 0f             	movzbl (%rdi),%ecx
   2b9a3:	31 c0                	xor    %eax,%eax
   2b9a5:	84 c9                	test   %cl,%cl
   2b9a7:	74 19                	je     2b9c2 <strrchr+0x22>
   2b9a9:	0f 1f 80 00 00 00 00 	nopl   0x0(%rax)
   2b9b0:	40 38 f1             	cmp    %sil,%cl
   2b9b3:	48 0f 44 c7          	cmove  %rdi,%rax
   2b9b7:	0f b6 4f 01          	movzbl 0x1(%rdi),%ecx
   2b9bb:	48 ff c7             	inc    %rdi
   2b9be:	84 c9                	test   %cl,%cl
   2b9c0:	75 ee                	jne    2b9b0 <strrchr+0x10>
   2b9c2:	85 f6                	test   %esi,%esi
   2b9c4:	48 0f 44 c7          	cmove  %rdi,%rax
   2b9c8:	c3                   	ret
   2b9c9:	cc                   	int3
   2b9ca:	cc                   	int3
   2b9cb:	cc                   	int3
   2b9cc:	cc                   	int3
   2b9cd:	cc                   	int3
   2b9ce:	cc                   	int3
   2b9cf:	cc                   	int3

000000000002b9d0 <toupper>:
   2b9d0:	8d 47 9f             	lea    -0x61(%rdi),%eax
   2b9d3:	31 c9                	xor    %ecx,%ecx
   2b9d5:	3c 1a                	cmp    $0x1a,%al
   2b9d7:	0f 92 c1             	setb   %cl
   2b9da:	c1 e1 05             	shl    $0x5,%ecx
   2b9dd:	40 0f b6 c7          	movzbl %dil,%eax
   2b9e1:	31 c8                	xor    %ecx,%eax
   2b9e3:	c3                   	ret
   2b9e4:	cc                   	int3
   2b9e5:	cc                   	int3
   2b9e6:	cc                   	int3
   2b9e7:	cc                   	int3
   2b9e8:	cc                   	int3
   2b9e9:	cc                   	int3
   2b9ea:	cc                   	int3
   2b9eb:	cc                   	int3
   2b9ec:	cc                   	int3
   2b9ed:	cc                   	int3
   2b9ee:	cc                   	int3
   2b9ef:	cc                   	int3

000000000002b9f0 <vfprintf>:
   2b9f0:	50                   	push   %rax
   2b9f1:	48 89 f7             	mov    %rsi,%rdi
   2b9f4:	48 89 d6             	mov    %rdx,%rsi
   2b9f7:	e8 64 e8 ff ff       	call   2a260 <_RNvCs2Lj2jyo7ES5_4doom12vprintf_core>
   2b9fc:	31 c0                	xor    %eax,%eax
   2b9fe:	59                   	pop    %rcx
   2b9ff:	c3                   	ret

000000000002ba00 <vsnprintf>:
   2ba00:	55                   	push   %rbp
   2ba01:	41 57                	push   %r15
   2ba03:	41 56                	push   %r14
   2ba05:	41 55                	push   %r13
   2ba07:	41 54                	push   %r12
   2ba09:	53                   	push   %rbx
   2ba0a:	48 83 ec 20          	sub    $0x20,%rsp
   2ba0e:	44 8b 21             	mov    (%rcx),%r12d
   2ba11:	4c 8b 41 10          	mov    0x10(%rcx),%r8
   2ba15:	31 c0                	xor    %eax,%eax
   2ba17:	48 89 74 24 18       	mov    %rsi,0x18(%rsp)
   2ba1c:	49 89 f2             	mov    %rsi,%r10
   2ba1f:	49 83 ea 01          	sub    $0x1,%r10
   2ba23:	41 b9 00 00 00 00    	mov    $0x0,%r9d
   2ba29:	4d 0f 43 ca          	cmovae %r10,%r9
   2ba2d:	4c 8b 79 08          	mov    0x8(%rcx),%r15
   2ba31:	48 8d 0d 3c bf fd ff 	lea    -0x240c4(%rip),%rcx        # 7974 <weapon_order_table-0x71cc>
   2ba38:	eb 15                	jmp    2ba4f <vsnprintf+0x4f>
   2ba3a:	66 0f 1f 44 00 00    	nopw   0x0(%rax,%rax,1)
   2ba40:	4d 89 fe             	mov    %r15,%r14
   2ba43:	44 89 e3             	mov    %r12d,%ebx
   2ba46:	48 ff c2             	inc    %rdx
   2ba49:	4d 89 f7             	mov    %r14,%r15
   2ba4c:	41 89 dc             	mov    %ebx,%r12d
   2ba4f:	44 0f b6 1a          	movzbl (%rdx),%r11d
   2ba53:	41 83 fb 25          	cmp    $0x25,%r11d
   2ba57:	74 27                	je     2ba80 <vsnprintf+0x80>
   2ba59:	45 85 db             	test   %r11d,%r11d
   2ba5c:	0f 84 07 0d 00 00    	je     2c769 <vsnprintf+0xd69>
   2ba62:	48 63 d8             	movslq %eax,%rbx
   2ba65:	49 39 d9             	cmp    %rbx,%r9
   2ba68:	76 d6                	jbe    2ba40 <vsnprintf+0x40>
   2ba6a:	44 88 1c 1f          	mov    %r11b,(%rdi,%rbx,1)
   2ba6e:	ff c0                	inc    %eax
   2ba70:	eb ce                	jmp    2ba40 <vsnprintf+0x40>
   2ba72:	66 66 66 66 66 2e 0f 	data16 data16 data16 data16 cs nopw 0x0(%rax,%rax,1)
   2ba79:	1f 84 00 00 00 00 00 
   2ba80:	44 0f b6 5a 01       	movzbl 0x1(%rdx),%r11d
   2ba85:	48 ff c2             	inc    %rdx
   2ba88:	41 83 c3 9c          	add    $0xffffff9c,%r11d
   2ba8c:	41 83 fb 14          	cmp    $0x14,%r11d
   2ba90:	0f 87 93 01 00 00    	ja     2bc29 <vsnprintf+0x229>
   2ba96:	4e 63 1c 99          	movslq (%rcx,%r11,4),%r11
   2ba9a:	49 01 cb             	add    %rcx,%r11
   2ba9d:	41 ff e3             	jmp    *%r11
   2baa0:	45 89 e3             	mov    %r12d,%r11d
   2baa3:	4d 01 c3             	add    %r8,%r11
   2baa6:	41 8d 5c 24 08       	lea    0x8(%r12),%ebx
   2baab:	45 31 f6             	xor    %r14d,%r14d
   2baae:	41 83 fc 29          	cmp    $0x29,%r12d
   2bab2:	40 0f 93 c5          	setae  %bpl
   2bab6:	41 0f 43 dc          	cmovae %r12d,%ebx
   2baba:	4d 0f 43 df          	cmovae %r15,%r11
   2babe:	4d 63 23             	movslq (%r11),%r12
   2bac1:	4d 85 e4             	test   %r12,%r12
   2bac4:	79 12                	jns    2bad8 <vsnprintf+0xd8>
   2bac6:	4c 63 d8             	movslq %eax,%r11
   2bac9:	4d 39 d9             	cmp    %r11,%r9
   2bacc:	76 07                	jbe    2bad5 <vsnprintf+0xd5>
   2bace:	42 c6 04 1f 2d       	movb   $0x2d,(%rdi,%r11,1)
   2bad3:	ff c0                	inc    %eax
   2bad5:	49 f7 dc             	neg    %r12
   2bad8:	c7 44 24 10 00 00 00 	movl   $0x0,0x10(%rsp)
   2badf:	00 
   2bae0:	48 c7 44 24 08 00 00 	movq   $0x0,0x8(%rsp)
   2bae7:	00 00 
   2bae9:	48 c7 04 24 00 00 00 	movq   $0x0,(%rsp)
   2baf0:	00 
   2baf1:	4d 85 e4             	test   %r12,%r12
   2baf4:	0f 84 7b 02 00 00    	je     2bd75 <vsnprintf+0x375>
   2bafa:	0f 8e a0 06 00 00    	jle    2c1a0 <vsnprintf+0x7a0>
   2bb00:	4d 89 e5             	mov    %r12,%r13
   2bb03:	be cd cc cc cc       	mov    $0xcccccccd,%esi
   2bb08:	4c 0f af ee          	imul   %rsi,%r13
   2bb0c:	49 c1 ed 23          	shr    $0x23,%r13
   2bb10:	46 8d 1c 6d 00 00 00 	lea    0x0(,%r13,2),%r11d
   2bb17:	00 
   2bb18:	47 8d 1c 9b          	lea    (%r11,%r11,4),%r11d
   2bb1c:	45 89 e2             	mov    %r12d,%r10d
   2bb1f:	45 29 da             	sub    %r11d,%r10d
   2bb22:	41 80 ca 30          	or     $0x30,%r10b
   2bb26:	44 88 14 24          	mov    %r10b,(%rsp)
   2bb2a:	49 83 fc 0a          	cmp    $0xa,%r12
   2bb2e:	0f 82 45 02 00 00    	jb     2bd79 <vsnprintf+0x379>
   2bb34:	45 89 ea             	mov    %r13d,%r10d
   2bb37:	4d 69 d2 9a 99 99 19 	imul   $0x1999999a,%r10,%r10
   2bb3e:	49 c1 ea 20          	shr    $0x20,%r10
   2bb42:	45 01 d2             	add    %r10d,%r10d
   2bb45:	47 8d 14 92          	lea    (%r10,%r10,4),%r10d
   2bb49:	45 29 d5             	sub    %r10d,%r13d
   2bb4c:	41 80 cd 30          	or     $0x30,%r13b
   2bb50:	44 88 6c 24 01       	mov    %r13b,0x1(%rsp)
   2bb55:	49 83 fc 64          	cmp    $0x64,%r12
   2bb59:	0f 83 13 07 00 00    	jae    2c272 <vsnprintf+0x872>
   2bb5f:	41 bc 02 00 00 00    	mov    $0x2,%r12d
   2bb65:	45 31 ed             	xor    %r13d,%r13d
   2bb68:	e9 15 02 00 00       	jmp    2bd82 <vsnprintf+0x382>
   2bb6d:	44 89 e6             	mov    %r12d,%esi
   2bb70:	4c 01 c6             	add    %r8,%rsi
   2bb73:	41 8d 5c 24 08       	lea    0x8(%r12),%ebx
   2bb78:	45 31 d2             	xor    %r10d,%r10d
   2bb7b:	41 83 fc 29          	cmp    $0x29,%r12d
   2bb7f:	41 0f 93 c2          	setae  %r10b
   2bb83:	41 0f 43 dc          	cmovae %r12d,%ebx
   2bb87:	49 0f 43 f7          	cmovae %r15,%rsi
   2bb8b:	4f 8d 34 d7          	lea    (%r15,%r10,8),%r14
   2bb8f:	4c 8b 3e             	mov    (%rsi),%r15
   2bb92:	4d 89 fc             	mov    %r15,%r12
   2bb95:	49 c1 ec 3c          	shr    $0x3c,%r12
   2bb99:	0f 84 80 02 00 00    	je     2be1f <vsnprintf+0x41f>
   2bb9f:	4c 63 d8             	movslq %eax,%r11
   2bba2:	4d 39 d9             	cmp    %r11,%r9
   2bba5:	76 28                	jbe    2bbcf <vsnprintf+0x1cf>
   2bba7:	4c 89 f8             	mov    %r15,%rax
   2bbaa:	48 c1 e8 3d          	shr    $0x3d,%rax
   2bbae:	41 8d 74 24 30       	lea    0x30(%r12),%esi
   2bbb3:	41 80 c4 57          	add    $0x57,%r12b
   2bbb7:	83 f8 05             	cmp    $0x5,%eax
   2bbba:	40 0f b6 c6          	movzbl %sil,%eax
   2bbbe:	41 0f b6 f4          	movzbl %r12b,%esi
   2bbc2:	0f 42 f0             	cmovb  %eax,%esi
   2bbc5:	42 88 34 1f          	mov    %sil,(%rdi,%r11,1)
   2bbc9:	41 ff c3             	inc    %r11d
   2bbcc:	44 89 d8             	mov    %r11d,%eax
   2bbcf:	4d 89 fb             	mov    %r15,%r11
   2bbd2:	49 c1 eb 38          	shr    $0x38,%r11
   2bbd6:	41 83 e3 0f          	and    $0xf,%r11d
   2bbda:	e9 4d 02 00 00       	jmp    2be2c <vsnprintf+0x42c>
   2bbdf:	44 89 e6             	mov    %r12d,%esi
   2bbe2:	4c 01 c6             	add    %r8,%rsi
   2bbe5:	41 8d 5c 24 08       	lea    0x8(%r12),%ebx
   2bbea:	45 31 d2             	xor    %r10d,%r10d
   2bbed:	41 83 fc 29          	cmp    $0x29,%r12d
   2bbf1:	41 0f 93 c2          	setae  %r10b
   2bbf5:	41 0f 43 dc          	cmovae %r12d,%ebx
   2bbf9:	4f 8d 34 d7          	lea    (%r15,%r10,8),%r14
   2bbfd:	49 0f 43 f7          	cmovae %r15,%rsi
   2bc01:	44 8b 3e             	mov    (%rsi),%r15d
   2bc04:	49 81 ff 00 00 00 10 	cmp    $0x10000000,%r15
   2bc0b:	0f 82 e9 01 00 00    	jb     2bdfa <vsnprintf+0x3fa>
   2bc11:	4d 89 fc             	mov    %r15,%r12
   2bc14:	49 c1 ec 1c          	shr    $0x1c,%r12
   2bc18:	4c 63 d8             	movslq %eax,%r11
   2bc1b:	4d 39 d9             	cmp    %r11,%r9
   2bc1e:	0f 87 78 03 00 00    	ja     2bf9c <vsnprintf+0x59c>
   2bc24:	e9 95 03 00 00       	jmp    2bfbe <vsnprintf+0x5be>
   2bc29:	4c 63 d8             	movslq %eax,%r11
   2bc2c:	4d 39 d9             	cmp    %r11,%r9
   2bc2f:	76 0a                	jbe    2bc3b <vsnprintf+0x23b>
   2bc31:	42 c6 04 1f 25       	movb   $0x25,(%rdi,%r11,1)
   2bc36:	ff c0                	inc    %eax
   2bc38:	4c 63 d8             	movslq %eax,%r11
   2bc3b:	4d 39 d9             	cmp    %r11,%r9
   2bc3e:	0f 86 fc fd ff ff    	jbe    2ba40 <vsnprintf+0x40>
   2bc44:	0f b6 32             	movzbl (%rdx),%esi
   2bc47:	42 88 34 1f          	mov    %sil,(%rdi,%r11,1)
   2bc4b:	ff c0                	inc    %eax
   2bc4d:	e9 ee fd ff ff       	jmp    2ba40 <vsnprintf+0x40>
   2bc52:	45 89 e3             	mov    %r12d,%r11d
   2bc55:	4d 01 c3             	add    %r8,%r11
   2bc58:	41 8d 5c 24 08       	lea    0x8(%r12),%ebx
   2bc5d:	45 31 f6             	xor    %r14d,%r14d
   2bc60:	41 83 fc 29          	cmp    $0x29,%r12d
   2bc64:	41 0f 93 c6          	setae  %r14b
   2bc68:	4f 8d 34 f7          	lea    (%r15,%r14,8),%r14
   2bc6c:	41 0f 43 dc          	cmovae %r12d,%ebx
   2bc70:	4d 0f 43 df          	cmovae %r15,%r11
   2bc74:	4d 8b 3b             	mov    (%r11),%r15
   2bc77:	4d 85 ff             	test   %r15,%r15
   2bc7a:	0f 84 b1 04 00 00    	je     2c131 <vsnprintf+0x731>
   2bc80:	45 0f b6 1f          	movzbl (%r15),%r11d
   2bc84:	45 84 db             	test   %r11b,%r11b
   2bc87:	0f 84 b9 fd ff ff    	je     2ba46 <vsnprintf+0x46>
   2bc8d:	49 ff c7             	inc    %r15
   2bc90:	eb 1e                	jmp    2bcb0 <vsnprintf+0x2b0>
   2bc92:	66 66 66 66 66 2e 0f 	data16 data16 data16 data16 cs nopw 0x0(%rax,%rax,1)
   2bc99:	1f 84 00 00 00 00 00 
   2bca0:	45 0f b6 1f          	movzbl (%r15),%r11d
   2bca4:	49 ff c7             	inc    %r15
   2bca7:	45 84 db             	test   %r11b,%r11b
   2bcaa:	0f 84 96 fd ff ff    	je     2ba46 <vsnprintf+0x46>
   2bcb0:	4c 63 e0             	movslq %eax,%r12
   2bcb3:	4d 39 e1             	cmp    %r12,%r9
   2bcb6:	76 e8                	jbe    2bca0 <vsnprintf+0x2a0>
   2bcb8:	46 88 1c 27          	mov    %r11b,(%rdi,%r12,1)
   2bcbc:	41 ff c4             	inc    %r12d
   2bcbf:	44 89 e0             	mov    %r12d,%eax
   2bcc2:	eb dc                	jmp    2bca0 <vsnprintf+0x2a0>
   2bcc4:	45 89 e3             	mov    %r12d,%r11d
   2bcc7:	4d 01 c3             	add    %r8,%r11
   2bcca:	41 8d 5c 24 08       	lea    0x8(%r12),%ebx
   2bccf:	45 31 f6             	xor    %r14d,%r14d
   2bcd2:	41 83 fc 29          	cmp    $0x29,%r12d
   2bcd6:	41 0f 43 dc          	cmovae %r12d,%ebx
   2bcda:	40 0f 93 c5          	setae  %bpl
   2bcde:	4d 0f 43 df          	cmovae %r15,%r11
   2bce2:	45 8b 23             	mov    (%r11),%r12d
   2bce5:	c7 44 24 10 00 00 00 	movl   $0x0,0x10(%rsp)
   2bcec:	00 
   2bced:	48 c7 44 24 08 00 00 	movq   $0x0,0x8(%rsp)
   2bcf4:	00 00 
   2bcf6:	48 c7 04 24 00 00 00 	movq   $0x0,(%rsp)
   2bcfd:	00 
   2bcfe:	45 85 e4             	test   %r12d,%r12d
   2bd01:	0f 84 68 04 00 00    	je     2c16f <vsnprintf+0x76f>
   2bd07:	45 89 e3             	mov    %r12d,%r11d
   2bd0a:	4d 89 dd             	mov    %r11,%r13
   2bd0d:	be cd cc cc cc       	mov    $0xcccccccd,%esi
   2bd12:	4c 0f af ee          	imul   %rsi,%r13
   2bd16:	49 c1 ed 23          	shr    $0x23,%r13
   2bd1a:	46 8d 14 6d 00 00 00 	lea    0x0(,%r13,2),%r10d
   2bd21:	00 
   2bd22:	47 8d 14 92          	lea    (%r10,%r10,4),%r10d
   2bd26:	44 89 e6             	mov    %r12d,%esi
   2bd29:	44 29 d6             	sub    %r10d,%esi
   2bd2c:	40 80 ce 30          	or     $0x30,%sil
   2bd30:	40 88 34 24          	mov    %sil,(%rsp)
   2bd34:	41 83 fc 09          	cmp    $0x9,%r12d
   2bd38:	0f 86 35 04 00 00    	jbe    2c173 <vsnprintf+0x773>
   2bd3e:	44 89 ee             	mov    %r13d,%esi
   2bd41:	48 69 f6 9a 99 99 19 	imul   $0x1999999a,%rsi,%rsi
   2bd48:	48 c1 ee 20          	shr    $0x20,%rsi
   2bd4c:	01 f6                	add    %esi,%esi
   2bd4e:	8d 34 b6             	lea    (%rsi,%rsi,4),%esi
   2bd51:	41 29 f5             	sub    %esi,%r13d
   2bd54:	41 80 cd 30          	or     $0x30,%r13b
   2bd58:	44 88 6c 24 01       	mov    %r13b,0x1(%rsp)
   2bd5d:	41 83 fc 64          	cmp    $0x64,%r12d
   2bd61:	0f 83 bd 05 00 00    	jae    2c324 <vsnprintf+0x924>
   2bd67:	41 bc 02 00 00 00    	mov    $0x2,%r12d
   2bd6d:	45 31 ed             	xor    %r13d,%r13d
   2bd70:	e9 07 04 00 00       	jmp    2c17c <vsnprintf+0x77c>
   2bd75:	c6 04 24 30          	movb   $0x30,(%rsp)
   2bd79:	41 bc 01 00 00 00    	mov    $0x1,%r12d
   2bd7f:	41 b5 01             	mov    $0x1,%r13b
   2bd82:	41 f6 c4 01          	test   $0x1,%r12b
   2bd86:	74 1a                	je     2bda2 <vsnprintf+0x3a2>
   2bd88:	49 ff cc             	dec    %r12
   2bd8b:	4c 63 d8             	movslq %eax,%r11
   2bd8e:	4d 39 d9             	cmp    %r11,%r9
   2bd91:	76 0f                	jbe    2bda2 <vsnprintf+0x3a2>
   2bd93:	42 0f b6 04 24       	movzbl (%rsp,%r12,1),%eax
   2bd98:	42 88 04 1f          	mov    %al,(%rdi,%r11,1)
   2bd9c:	41 ff c3             	inc    %r11d
   2bd9f:	44 89 d8             	mov    %r11d,%eax
   2bda2:	45 84 ed             	test   %r13b,%r13b
   2bda5:	74 13                	je     2bdba <vsnprintf+0x3ba>
   2bda7:	e9 f4 03 00 00       	jmp    2c1a0 <vsnprintf+0x7a0>
   2bdac:	0f 1f 40 00          	nopl   0x0(%rax)
   2bdb0:	49 83 c4 fe          	add    $0xfffffffffffffffe,%r12
   2bdb4:	0f 84 e6 03 00 00    	je     2c1a0 <vsnprintf+0x7a0>
   2bdba:	4c 63 d8             	movslq %eax,%r11
   2bdbd:	4d 39 d9             	cmp    %r11,%r9
   2bdc0:	77 0e                	ja     2bdd0 <vsnprintf+0x3d0>
   2bdc2:	4c 63 d8             	movslq %eax,%r11
   2bdc5:	4d 39 d9             	cmp    %r11,%r9
   2bdc8:	76 e6                	jbe    2bdb0 <vsnprintf+0x3b0>
   2bdca:	eb 1c                	jmp    2bde8 <vsnprintf+0x3e8>
   2bdcc:	0f 1f 40 00          	nopl   0x0(%rax)
   2bdd0:	42 0f b6 44 24 ff    	movzbl -0x1(%rsp,%r12,1),%eax
   2bdd6:	42 88 04 1f          	mov    %al,(%rdi,%r11,1)
   2bdda:	41 ff c3             	inc    %r11d
   2bddd:	44 89 d8             	mov    %r11d,%eax
   2bde0:	4c 63 d8             	movslq %eax,%r11
   2bde3:	4d 39 d9             	cmp    %r11,%r9
   2bde6:	76 c8                	jbe    2bdb0 <vsnprintf+0x3b0>
   2bde8:	42 0f b6 44 24 fe    	movzbl -0x2(%rsp,%r12,1),%eax
   2bdee:	42 88 04 1f          	mov    %al,(%rdi,%r11,1)
   2bdf2:	41 ff c3             	inc    %r11d
   2bdf5:	44 89 d8             	mov    %r11d,%eax
   2bdf8:	eb b6                	jmp    2bdb0 <vsnprintf+0x3b0>
   2bdfa:	49 81 ff 00 00 00 01 	cmp    $0x1000000,%r15
   2be01:	0f 82 f3 03 00 00    	jb     2c1fa <vsnprintf+0x7fa>
   2be07:	4d 89 fc             	mov    %r15,%r12
   2be0a:	49 c1 ec 18          	shr    $0x18,%r12
   2be0e:	4c 63 d8             	movslq %eax,%r11
   2be11:	4d 39 d9             	cmp    %r11,%r9
   2be14:	0f 87 b7 01 00 00    	ja     2bfd1 <vsnprintf+0x5d1>
   2be1a:	e9 d4 01 00 00       	jmp    2bff3 <vsnprintf+0x5f3>
   2be1f:	4d 89 fb             	mov    %r15,%r11
   2be22:	49 c1 eb 38          	shr    $0x38,%r11
   2be26:	0f 84 f3 03 00 00    	je     2c21f <vsnprintf+0x81f>
   2be2c:	4c 63 e0             	movslq %eax,%r12
   2be2f:	4d 39 e1             	cmp    %r12,%r9
   2be32:	76 21                	jbe    2be55 <vsnprintf+0x455>
   2be34:	44 89 d8             	mov    %r11d,%eax
   2be37:	0c 30                	or     $0x30,%al
   2be39:	41 8d 73 57          	lea    0x57(%r11),%esi
   2be3d:	49 83 fb 0a          	cmp    $0xa,%r11
   2be41:	0f b6 c0             	movzbl %al,%eax
   2be44:	40 0f b6 f6          	movzbl %sil,%esi
   2be48:	0f 42 f0             	cmovb  %eax,%esi
   2be4b:	42 88 34 27          	mov    %sil,(%rdi,%r12,1)
   2be4f:	41 ff c4             	inc    %r12d
   2be52:	44 89 e0             	mov    %r12d,%eax
   2be55:	4d 89 fb             	mov    %r15,%r11
   2be58:	49 c1 eb 34          	shr    $0x34,%r11
   2be5c:	41 83 e3 0f          	and    $0xf,%r11d
   2be60:	4c 63 e0             	movslq %eax,%r12
   2be63:	4d 39 e1             	cmp    %r12,%r9
   2be66:	76 21                	jbe    2be89 <vsnprintf+0x489>
   2be68:	44 89 d8             	mov    %r11d,%eax
   2be6b:	0c 30                	or     $0x30,%al
   2be6d:	41 8d 73 57          	lea    0x57(%r11),%esi
   2be71:	49 83 fb 0a          	cmp    $0xa,%r11
   2be75:	0f b6 c0             	movzbl %al,%eax
   2be78:	40 0f b6 f6          	movzbl %sil,%esi
   2be7c:	0f 42 f0             	cmovb  %eax,%esi
   2be7f:	42 88 34 27          	mov    %sil,(%rdi,%r12,1)
   2be83:	41 ff c4             	inc    %r12d
   2be86:	44 89 e0             	mov    %r12d,%eax
   2be89:	4d 89 fb             	mov    %r15,%r11
   2be8c:	49 c1 eb 30          	shr    $0x30,%r11
   2be90:	41 83 e3 0f          	and    $0xf,%r11d
   2be94:	4c 63 e0             	movslq %eax,%r12
   2be97:	4d 39 e1             	cmp    %r12,%r9
   2be9a:	76 21                	jbe    2bebd <vsnprintf+0x4bd>
   2be9c:	44 89 d8             	mov    %r11d,%eax
   2be9f:	0c 30                	or     $0x30,%al
   2bea1:	41 8d 73 57          	lea    0x57(%r11),%esi
   2bea5:	49 83 fb 0a          	cmp    $0xa,%r11
   2bea9:	0f b6 c0             	movzbl %al,%eax
   2beac:	40 0f b6 f6          	movzbl %sil,%esi
   2beb0:	0f 42 f0             	cmovb  %eax,%esi
   2beb3:	42 88 34 27          	mov    %sil,(%rdi,%r12,1)
   2beb7:	41 ff c4             	inc    %r12d
   2beba:	44 89 e0             	mov    %r12d,%eax
   2bebd:	4d 89 fb             	mov    %r15,%r11
   2bec0:	49 c1 eb 2c          	shr    $0x2c,%r11
   2bec4:	41 83 e3 0f          	and    $0xf,%r11d
   2bec8:	4c 63 e0             	movslq %eax,%r12
   2becb:	4d 39 e1             	cmp    %r12,%r9
   2bece:	76 21                	jbe    2bef1 <vsnprintf+0x4f1>
   2bed0:	44 89 d8             	mov    %r11d,%eax
   2bed3:	0c 30                	or     $0x30,%al
   2bed5:	41 8d 73 57          	lea    0x57(%r11),%esi
   2bed9:	49 83 fb 0a          	cmp    $0xa,%r11
   2bedd:	0f b6 c0             	movzbl %al,%eax
   2bee0:	40 0f b6 f6          	movzbl %sil,%esi
   2bee4:	0f 42 f0             	cmovb  %eax,%esi
   2bee7:	42 88 34 27          	mov    %sil,(%rdi,%r12,1)
   2beeb:	41 ff c4             	inc    %r12d
   2beee:	44 89 e0             	mov    %r12d,%eax
   2bef1:	4d 89 fb             	mov    %r15,%r11
   2bef4:	49 c1 eb 28          	shr    $0x28,%r11
   2bef8:	41 83 e3 0f          	and    $0xf,%r11d
   2befc:	4c 63 e0             	movslq %eax,%r12
   2beff:	4d 39 e1             	cmp    %r12,%r9
   2bf02:	76 21                	jbe    2bf25 <vsnprintf+0x525>
   2bf04:	44 89 d8             	mov    %r11d,%eax
   2bf07:	0c 30                	or     $0x30,%al
   2bf09:	41 8d 73 57          	lea    0x57(%r11),%esi
   2bf0d:	49 83 fb 0a          	cmp    $0xa,%r11
   2bf11:	0f b6 c0             	movzbl %al,%eax
   2bf14:	40 0f b6 f6          	movzbl %sil,%esi
   2bf18:	0f 42 f0             	cmovb  %eax,%esi
   2bf1b:	42 88 34 27          	mov    %sil,(%rdi,%r12,1)
   2bf1f:	41 ff c4             	inc    %r12d
   2bf22:	44 89 e0             	mov    %r12d,%eax
   2bf25:	4d 89 fb             	mov    %r15,%r11
   2bf28:	49 c1 eb 24          	shr    $0x24,%r11
   2bf2c:	41 83 e3 0f          	and    $0xf,%r11d
   2bf30:	4c 63 e0             	movslq %eax,%r12
   2bf33:	4d 39 e1             	cmp    %r12,%r9
   2bf36:	76 21                	jbe    2bf59 <vsnprintf+0x559>
   2bf38:	44 89 d8             	mov    %r11d,%eax
   2bf3b:	0c 30                	or     $0x30,%al
   2bf3d:	41 8d 73 57          	lea    0x57(%r11),%esi
   2bf41:	49 83 fb 0a          	cmp    $0xa,%r11
   2bf45:	0f b6 c0             	movzbl %al,%eax
   2bf48:	40 0f b6 f6          	movzbl %sil,%esi
   2bf4c:	0f 42 f0             	cmovb  %eax,%esi
   2bf4f:	42 88 34 27          	mov    %sil,(%rdi,%r12,1)
   2bf53:	41 ff c4             	inc    %r12d
   2bf56:	44 89 e0             	mov    %r12d,%eax
   2bf59:	4d 89 fb             	mov    %r15,%r11
   2bf5c:	49 c1 eb 20          	shr    $0x20,%r11
   2bf60:	41 83 e3 0f          	and    $0xf,%r11d
   2bf64:	4c 63 e0             	movslq %eax,%r12
   2bf67:	4d 39 e1             	cmp    %r12,%r9
   2bf6a:	76 21                	jbe    2bf8d <vsnprintf+0x58d>
   2bf6c:	44 89 d8             	mov    %r11d,%eax
   2bf6f:	0c 30                	or     $0x30,%al
   2bf71:	41 8d 73 57          	lea    0x57(%r11),%esi
   2bf75:	49 83 fb 0a          	cmp    $0xa,%r11
   2bf79:	0f b6 c0             	movzbl %al,%eax
   2bf7c:	40 0f b6 f6          	movzbl %sil,%esi
   2bf80:	0f 42 f0             	cmovb  %eax,%esi
   2bf83:	42 88 34 27          	mov    %sil,(%rdi,%r12,1)
   2bf87:	41 ff c4             	inc    %r12d
   2bf8a:	44 89 e0             	mov    %r12d,%eax
   2bf8d:	45 89 fc             	mov    %r15d,%r12d
   2bf90:	41 c1 ec 1c          	shr    $0x1c,%r12d
   2bf94:	4c 63 d8             	movslq %eax,%r11
   2bf97:	4d 39 d9             	cmp    %r11,%r9
   2bf9a:	76 22                	jbe    2bfbe <vsnprintf+0x5be>
   2bf9c:	44 89 e0             	mov    %r12d,%eax
   2bf9f:	0c 30                	or     $0x30,%al
   2bfa1:	41 8d 74 24 57       	lea    0x57(%r12),%esi
   2bfa6:	49 83 fc 0a          	cmp    $0xa,%r12
   2bfaa:	0f b6 c0             	movzbl %al,%eax
   2bfad:	40 0f b6 f6          	movzbl %sil,%esi
   2bfb1:	0f 42 f0             	cmovb  %eax,%esi
   2bfb4:	42 88 34 1f          	mov    %sil,(%rdi,%r11,1)
   2bfb8:	41 ff c3             	inc    %r11d
   2bfbb:	44 89 d8             	mov    %r11d,%eax
   2bfbe:	45 89 fc             	mov    %r15d,%r12d
   2bfc1:	41 c1 ec 18          	shr    $0x18,%r12d
   2bfc5:	41 83 e4 0f          	and    $0xf,%r12d
   2bfc9:	4c 63 d8             	movslq %eax,%r11
   2bfcc:	4d 39 d9             	cmp    %r11,%r9
   2bfcf:	76 22                	jbe    2bff3 <vsnprintf+0x5f3>
   2bfd1:	44 89 e0             	mov    %r12d,%eax
   2bfd4:	0c 30                	or     $0x30,%al
   2bfd6:	41 8d 74 24 57       	lea    0x57(%r12),%esi
   2bfdb:	49 83 fc 0a          	cmp    $0xa,%r12
   2bfdf:	0f b6 c0             	movzbl %al,%eax
   2bfe2:	40 0f b6 f6          	movzbl %sil,%esi
   2bfe6:	0f 42 f0             	cmovb  %eax,%esi
   2bfe9:	42 88 34 1f          	mov    %sil,(%rdi,%r11,1)
   2bfed:	41 ff c3             	inc    %r11d
   2bff0:	44 89 d8             	mov    %r11d,%eax
   2bff3:	45 89 fc             	mov    %r15d,%r12d
   2bff6:	41 c1 ec 14          	shr    $0x14,%r12d
   2bffa:	41 83 e4 0f          	and    $0xf,%r12d
   2bffe:	4c 63 d8             	movslq %eax,%r11
   2c001:	4d 39 d9             	cmp    %r11,%r9
   2c004:	76 22                	jbe    2c028 <vsnprintf+0x628>
   2c006:	44 89 e0             	mov    %r12d,%eax
   2c009:	0c 30                	or     $0x30,%al
   2c00b:	41 8d 74 24 57       	lea    0x57(%r12),%esi
   2c010:	49 83 fc 0a          	cmp    $0xa,%r12
   2c014:	0f b6 c0             	movzbl %al,%eax
   2c017:	40 0f b6 f6          	movzbl %sil,%esi
   2c01b:	0f 42 f0             	cmovb  %eax,%esi
   2c01e:	42 88 34 1f          	mov    %sil,(%rdi,%r11,1)
   2c022:	41 ff c3             	inc    %r11d
   2c025:	44 89 d8             	mov    %r11d,%eax
   2c028:	45 89 fc             	mov    %r15d,%r12d
   2c02b:	41 c1 ec 10          	shr    $0x10,%r12d
   2c02f:	41 83 e4 0f          	and    $0xf,%r12d
   2c033:	4c 63 d8             	movslq %eax,%r11
   2c036:	4d 39 d9             	cmp    %r11,%r9
   2c039:	76 22                	jbe    2c05d <vsnprintf+0x65d>
   2c03b:	44 89 e0             	mov    %r12d,%eax
   2c03e:	0c 30                	or     $0x30,%al
   2c040:	41 8d 74 24 57       	lea    0x57(%r12),%esi
   2c045:	49 83 fc 0a          	cmp    $0xa,%r12
   2c049:	0f b6 c0             	movzbl %al,%eax
   2c04c:	40 0f b6 f6          	movzbl %sil,%esi
   2c050:	0f 42 f0             	cmovb  %eax,%esi
   2c053:	42 88 34 1f          	mov    %sil,(%rdi,%r11,1)
   2c057:	41 ff c3             	inc    %r11d
   2c05a:	44 89 d8             	mov    %r11d,%eax
   2c05d:	45 89 fc             	mov    %r15d,%r12d
   2c060:	41 c1 ec 0c          	shr    $0xc,%r12d
   2c064:	41 83 e4 0f          	and    $0xf,%r12d
   2c068:	4c 63 d8             	movslq %eax,%r11
   2c06b:	4d 39 d9             	cmp    %r11,%r9
   2c06e:	76 22                	jbe    2c092 <vsnprintf+0x692>
   2c070:	44 89 e0             	mov    %r12d,%eax
   2c073:	0c 30                	or     $0x30,%al
   2c075:	41 8d 74 24 57       	lea    0x57(%r12),%esi
   2c07a:	49 83 fc 0a          	cmp    $0xa,%r12
   2c07e:	0f b6 c0             	movzbl %al,%eax
   2c081:	40 0f b6 f6          	movzbl %sil,%esi
   2c085:	0f 42 f0             	cmovb  %eax,%esi
   2c088:	42 88 34 1f          	mov    %sil,(%rdi,%r11,1)
   2c08c:	41 ff c3             	inc    %r11d
   2c08f:	44 89 d8             	mov    %r11d,%eax
   2c092:	45 89 fc             	mov    %r15d,%r12d
   2c095:	41 c1 ec 08          	shr    $0x8,%r12d
   2c099:	41 83 e4 0f          	and    $0xf,%r12d
   2c09d:	4c 63 d8             	movslq %eax,%r11
   2c0a0:	4d 39 d9             	cmp    %r11,%r9
   2c0a3:	76 22                	jbe    2c0c7 <vsnprintf+0x6c7>
   2c0a5:	44 89 e0             	mov    %r12d,%eax
   2c0a8:	0c 30                	or     $0x30,%al
   2c0aa:	41 8d 74 24 57       	lea    0x57(%r12),%esi
   2c0af:	49 83 fc 0a          	cmp    $0xa,%r12
   2c0b3:	0f b6 c0             	movzbl %al,%eax
   2c0b6:	40 0f b6 f6          	movzbl %sil,%esi
   2c0ba:	0f 42 f0             	cmovb  %eax,%esi
   2c0bd:	42 88 34 1f          	mov    %sil,(%rdi,%r11,1)
   2c0c1:	41 ff c3             	inc    %r11d
   2c0c4:	44 89 d8             	mov    %r11d,%eax
   2c0c7:	45 89 fc             	mov    %r15d,%r12d
   2c0ca:	41 c1 ec 04          	shr    $0x4,%r12d
   2c0ce:	41 83 e4 0f          	and    $0xf,%r12d
   2c0d2:	4c 63 d8             	movslq %eax,%r11
   2c0d5:	4d 39 d9             	cmp    %r11,%r9
   2c0d8:	76 22                	jbe    2c0fc <vsnprintf+0x6fc>
   2c0da:	44 89 e0             	mov    %r12d,%eax
   2c0dd:	0c 30                	or     $0x30,%al
   2c0df:	41 8d 74 24 57       	lea    0x57(%r12),%esi
   2c0e4:	49 83 fc 0a          	cmp    $0xa,%r12
   2c0e8:	0f b6 c0             	movzbl %al,%eax
   2c0eb:	40 0f b6 f6          	movzbl %sil,%esi
   2c0ef:	0f 42 f0             	cmovb  %eax,%esi
   2c0f2:	42 88 34 1f          	mov    %sil,(%rdi,%r11,1)
   2c0f6:	41 ff c3             	inc    %r11d
   2c0f9:	44 89 d8             	mov    %r11d,%eax
   2c0fc:	4c 63 d8             	movslq %eax,%r11
   2c0ff:	4d 39 d9             	cmp    %r11,%r9
   2c102:	0f 86 3e f9 ff ff    	jbe    2ba46 <vsnprintf+0x46>
   2c108:	41 83 e7 0f          	and    $0xf,%r15d
   2c10c:	41 8d 47 30          	lea    0x30(%r15),%eax
   2c110:	41 8d 77 57          	lea    0x57(%r15),%esi
   2c114:	49 83 ff 0a          	cmp    $0xa,%r15
   2c118:	0f b6 c0             	movzbl %al,%eax
   2c11b:	40 0f b6 f6          	movzbl %sil,%esi
   2c11f:	0f 42 f0             	cmovb  %eax,%esi
   2c122:	42 88 34 1f          	mov    %sil,(%rdi,%r11,1)
   2c126:	41 ff c3             	inc    %r11d
   2c129:	44 89 d8             	mov    %r11d,%eax
   2c12c:	e9 15 f9 ff ff       	jmp    2ba46 <vsnprintf+0x46>
   2c131:	4c 63 f8             	movslq %eax,%r15
   2c134:	4d 39 f9             	cmp    %r15,%r9
   2c137:	0f 87 7c 01 00 00    	ja     2c2b9 <vsnprintf+0x8b9>
   2c13d:	4d 39 f9             	cmp    %r15,%r9
   2c140:	0f 87 86 01 00 00    	ja     2c2cc <vsnprintf+0x8cc>
   2c146:	4d 39 f9             	cmp    %r15,%r9
   2c149:	0f 87 90 01 00 00    	ja     2c2df <vsnprintf+0x8df>
   2c14f:	4d 39 f9             	cmp    %r15,%r9
   2c152:	0f 87 9a 01 00 00    	ja     2c2f2 <vsnprintf+0x8f2>
   2c158:	4d 39 f9             	cmp    %r15,%r9
   2c15b:	0f 87 a4 01 00 00    	ja     2c305 <vsnprintf+0x905>
   2c161:	4d 39 f9             	cmp    %r15,%r9
   2c164:	0f 86 dc f8 ff ff    	jbe    2ba46 <vsnprintf+0x46>
   2c16a:	e9 a9 01 00 00       	jmp    2c318 <vsnprintf+0x918>
   2c16f:	c6 04 24 30          	movb   $0x30,(%rsp)
   2c173:	41 bc 01 00 00 00    	mov    $0x1,%r12d
   2c179:	41 b5 01             	mov    $0x1,%r13b
   2c17c:	41 f6 c4 01          	test   $0x1,%r12b
   2c180:	74 16                	je     2c198 <vsnprintf+0x798>
   2c182:	49 ff cc             	dec    %r12
   2c185:	4c 63 d8             	movslq %eax,%r11
   2c188:	4d 39 d9             	cmp    %r11,%r9
   2c18b:	76 0b                	jbe    2c198 <vsnprintf+0x798>
   2c18d:	42 0f b6 34 24       	movzbl (%rsp,%r12,1),%esi
   2c192:	42 88 34 1f          	mov    %sil,(%rdi,%r11,1)
   2c196:	ff c0                	inc    %eax
   2c198:	45 84 ed             	test   %r13b,%r13b
   2c19b:	74 19                	je     2c1b6 <vsnprintf+0x7b6>
   2c19d:	0f 1f 00             	nopl   (%rax)
   2c1a0:	41 88 ee             	mov    %bpl,%r14b
   2c1a3:	4f 8d 34 f7          	lea    (%r15,%r14,8),%r14
   2c1a7:	e9 9a f8 ff ff       	jmp    2ba46 <vsnprintf+0x46>
   2c1ac:	0f 1f 40 00          	nopl   0x0(%rax)
   2c1b0:	49 83 c4 fe          	add    $0xfffffffffffffffe,%r12
   2c1b4:	74 ea                	je     2c1a0 <vsnprintf+0x7a0>
   2c1b6:	4c 63 d8             	movslq %eax,%r11
   2c1b9:	4d 39 d9             	cmp    %r11,%r9
   2c1bc:	77 12                	ja     2c1d0 <vsnprintf+0x7d0>
   2c1be:	4c 63 d8             	movslq %eax,%r11
   2c1c1:	4d 39 d9             	cmp    %r11,%r9
   2c1c4:	76 ea                	jbe    2c1b0 <vsnprintf+0x7b0>
   2c1c6:	eb 20                	jmp    2c1e8 <vsnprintf+0x7e8>
   2c1c8:	0f 1f 84 00 00 00 00 	nopl   0x0(%rax,%rax,1)
   2c1cf:	00 
   2c1d0:	42 0f b6 44 24 ff    	movzbl -0x1(%rsp,%r12,1),%eax
   2c1d6:	42 88 04 1f          	mov    %al,(%rdi,%r11,1)
   2c1da:	41 ff c3             	inc    %r11d
   2c1dd:	44 89 d8             	mov    %r11d,%eax
   2c1e0:	4c 63 d8             	movslq %eax,%r11
   2c1e3:	4d 39 d9             	cmp    %r11,%r9
   2c1e6:	76 c8                	jbe    2c1b0 <vsnprintf+0x7b0>
   2c1e8:	42 0f b6 44 24 fe    	movzbl -0x2(%rsp,%r12,1),%eax
   2c1ee:	42 88 04 1f          	mov    %al,(%rdi,%r11,1)
   2c1f2:	41 ff c3             	inc    %r11d
   2c1f5:	44 89 d8             	mov    %r11d,%eax
   2c1f8:	eb b6                	jmp    2c1b0 <vsnprintf+0x7b0>
   2c1fa:	49 81 ff 00 00 10 00 	cmp    $0x100000,%r15
   2c201:	0f 82 5d 01 00 00    	jb     2c364 <vsnprintf+0x964>
   2c207:	4d 89 fc             	mov    %r15,%r12
   2c20a:	49 c1 ec 14          	shr    $0x14,%r12
   2c20e:	4c 63 d8             	movslq %eax,%r11
   2c211:	4d 39 d9             	cmp    %r11,%r9
   2c214:	0f 87 ec fd ff ff    	ja     2c006 <vsnprintf+0x606>
   2c21a:	e9 09 fe ff ff       	jmp    2c028 <vsnprintf+0x628>
   2c21f:	4d 89 fb             	mov    %r15,%r11
   2c222:	49 c1 eb 34          	shr    $0x34,%r11
   2c226:	0f 85 34 fc ff ff    	jne    2be60 <vsnprintf+0x460>
   2c22c:	4d 89 fb             	mov    %r15,%r11
   2c22f:	49 c1 eb 30          	shr    $0x30,%r11
   2c233:	0f 85 5b fc ff ff    	jne    2be94 <vsnprintf+0x494>
   2c239:	4d 89 fb             	mov    %r15,%r11
   2c23c:	49 c1 eb 2c          	shr    $0x2c,%r11
   2c240:	0f 85 82 fc ff ff    	jne    2bec8 <vsnprintf+0x4c8>
   2c246:	4d 89 fb             	mov    %r15,%r11
   2c249:	49 c1 eb 28          	shr    $0x28,%r11
   2c24d:	0f 85 a9 fc ff ff    	jne    2befc <vsnprintf+0x4fc>
   2c253:	4d 89 fb             	mov    %r15,%r11
   2c256:	49 c1 eb 24          	shr    $0x24,%r11
   2c25a:	0f 85 d0 fc ff ff    	jne    2bf30 <vsnprintf+0x530>
   2c260:	4d 89 fb             	mov    %r15,%r11
   2c263:	49 c1 eb 20          	shr    $0x20,%r11
   2c267:	0f 84 97 f9 ff ff    	je     2bc04 <vsnprintf+0x204>
   2c26d:	e9 f2 fc ff ff       	jmp    2bf64 <vsnprintf+0x564>
   2c272:	45 89 e5             	mov    %r12d,%r13d
   2c275:	4d 69 d5 1f 85 eb 51 	imul   $0x51eb851f,%r13,%r10
   2c27c:	49 c1 ea 25          	shr    $0x25,%r10
   2c280:	4d 69 da 9a 99 99 19 	imul   $0x1999999a,%r10,%r11
   2c287:	49 c1 eb 20          	shr    $0x20,%r11
   2c28b:	45 01 db             	add    %r11d,%r11d
   2c28e:	47 8d 1c 9b          	lea    (%r11,%r11,4),%r11d
   2c292:	45 29 da             	sub    %r11d,%r10d
   2c295:	41 80 ca 30          	or     $0x30,%r10b
   2c299:	44 88 54 24 02       	mov    %r10b,0x2(%rsp)
   2c29e:	49 81 fc e8 03 00 00 	cmp    $0x3e8,%r12
   2c2a5:	0f 83 de 00 00 00    	jae    2c389 <vsnprintf+0x989>
   2c2ab:	41 bc 03 00 00 00    	mov    $0x3,%r12d
   2c2b1:	45 31 ed             	xor    %r13d,%r13d
   2c2b4:	e9 c9 fa ff ff       	jmp    2bd82 <vsnprintf+0x382>
   2c2b9:	42 c6 04 3f 28       	movb   $0x28,(%rdi,%r15,1)
   2c2be:	ff c0                	inc    %eax
   2c2c0:	4c 63 f8             	movslq %eax,%r15
   2c2c3:	4d 39 f9             	cmp    %r15,%r9
   2c2c6:	0f 86 7a fe ff ff    	jbe    2c146 <vsnprintf+0x746>
   2c2cc:	42 c6 04 3f 6e       	movb   $0x6e,(%rdi,%r15,1)
   2c2d1:	ff c0                	inc    %eax
   2c2d3:	4c 63 f8             	movslq %eax,%r15
   2c2d6:	4d 39 f9             	cmp    %r15,%r9
   2c2d9:	0f 86 70 fe ff ff    	jbe    2c14f <vsnprintf+0x74f>
   2c2df:	42 c6 04 3f 75       	movb   $0x75,(%rdi,%r15,1)
   2c2e4:	ff c0                	inc    %eax
   2c2e6:	4c 63 f8             	movslq %eax,%r15
   2c2e9:	4d 39 f9             	cmp    %r15,%r9
   2c2ec:	0f 86 66 fe ff ff    	jbe    2c158 <vsnprintf+0x758>
   2c2f2:	42 c6 04 3f 6c       	movb   $0x6c,(%rdi,%r15,1)
   2c2f7:	ff c0                	inc    %eax
   2c2f9:	4c 63 f8             	movslq %eax,%r15
   2c2fc:	4d 39 f9             	cmp    %r15,%r9
   2c2ff:	0f 86 5c fe ff ff    	jbe    2c161 <vsnprintf+0x761>
   2c305:	42 c6 04 3f 6c       	movb   $0x6c,(%rdi,%r15,1)
   2c30a:	ff c0                	inc    %eax
   2c30c:	4c 63 f8             	movslq %eax,%r15
   2c30f:	4d 39 f9             	cmp    %r15,%r9
   2c312:	0f 86 2e f7 ff ff    	jbe    2ba46 <vsnprintf+0x46>
   2c318:	42 c6 04 3f 29       	movb   $0x29,(%rdi,%r15,1)
   2c31d:	ff c0                	inc    %eax
   2c31f:	e9 22 f7 ff ff       	jmp    2ba46 <vsnprintf+0x46>
   2c324:	49 69 f3 1f 85 eb 51 	imul   $0x51eb851f,%r11,%rsi
   2c32b:	48 c1 ee 25          	shr    $0x25,%rsi
   2c32f:	4c 69 d6 9a 99 99 19 	imul   $0x1999999a,%rsi,%r10
   2c336:	49 c1 ea 20          	shr    $0x20,%r10
   2c33a:	45 01 d2             	add    %r10d,%r10d
   2c33d:	47 8d 14 92          	lea    (%r10,%r10,4),%r10d
   2c341:	44 29 d6             	sub    %r10d,%esi
   2c344:	40 80 ce 30          	or     $0x30,%sil
   2c348:	40 88 74 24 02       	mov    %sil,0x2(%rsp)
   2c34d:	41 81 fc e8 03 00 00 	cmp    $0x3e8,%r12d
   2c354:	73 73                	jae    2c3c9 <vsnprintf+0x9c9>
   2c356:	41 bc 03 00 00 00    	mov    $0x3,%r12d
   2c35c:	45 31 ed             	xor    %r13d,%r13d
   2c35f:	e9 18 fe ff ff       	jmp    2c17c <vsnprintf+0x77c>
   2c364:	49 81 ff 00 00 01 00 	cmp    $0x10000,%r15
   2c36b:	0f 82 98 00 00 00    	jb     2c409 <vsnprintf+0xa09>
   2c371:	4d 89 fc             	mov    %r15,%r12
   2c374:	49 c1 ec 10          	shr    $0x10,%r12
   2c378:	4c 63 d8             	movslq %eax,%r11
   2c37b:	4d 39 d9             	cmp    %r11,%r9
   2c37e:	0f 87 b7 fc ff ff    	ja     2c03b <vsnprintf+0x63b>
   2c384:	e9 d4 fc ff ff       	jmp    2c05d <vsnprintf+0x65d>
   2c389:	4d 69 d5 d3 4d 62 10 	imul   $0x10624dd3,%r13,%r10
   2c390:	49 c1 ea 26          	shr    $0x26,%r10
   2c394:	4d 69 da 9a 99 99 19 	imul   $0x1999999a,%r10,%r11
   2c39b:	49 c1 eb 20          	shr    $0x20,%r11
   2c39f:	45 01 db             	add    %r11d,%r11d
   2c3a2:	47 8d 1c 9b          	lea    (%r11,%r11,4),%r11d
   2c3a6:	45 29 da             	sub    %r11d,%r10d
   2c3a9:	41 80 ca 30          	or     $0x30,%r10b
   2c3ad:	44 88 54 24 03       	mov    %r10b,0x3(%rsp)
   2c3b2:	49 81 fc 10 27 00 00 	cmp    $0x2710,%r12
   2c3b9:	73 73                	jae    2c42e <vsnprintf+0xa2e>
   2c3bb:	41 bc 04 00 00 00    	mov    $0x4,%r12d
   2c3c1:	45 31 ed             	xor    %r13d,%r13d
   2c3c4:	e9 b9 f9 ff ff       	jmp    2bd82 <vsnprintf+0x382>
   2c3c9:	49 69 f3 d3 4d 62 10 	imul   $0x10624dd3,%r11,%rsi
   2c3d0:	48 c1 ee 26          	shr    $0x26,%rsi
   2c3d4:	4c 69 d6 9a 99 99 19 	imul   $0x1999999a,%rsi,%r10
   2c3db:	49 c1 ea 20          	shr    $0x20,%r10
   2c3df:	45 01 d2             	add    %r10d,%r10d
   2c3e2:	47 8d 14 92          	lea    (%r10,%r10,4),%r10d
   2c3e6:	44 29 d6             	sub    %r10d,%esi
   2c3e9:	40 80 ce 30          	or     $0x30,%sil
   2c3ed:	40 88 74 24 03       	mov    %sil,0x3(%rsp)
   2c3f2:	41 81 fc 10 27 00 00 	cmp    $0x2710,%r12d
   2c3f9:	73 78                	jae    2c473 <vsnprintf+0xa73>
   2c3fb:	41 bc 04 00 00 00    	mov    $0x4,%r12d
   2c401:	45 31 ed             	xor    %r13d,%r13d
   2c404:	e9 73 fd ff ff       	jmp    2c17c <vsnprintf+0x77c>
   2c409:	49 81 ff 00 10 00 00 	cmp    $0x1000,%r15
   2c410:	0f 82 a3 00 00 00    	jb     2c4b9 <vsnprintf+0xab9>
   2c416:	4d 89 fc             	mov    %r15,%r12
   2c419:	49 c1 ec 0c          	shr    $0xc,%r12
   2c41d:	4c 63 d8             	movslq %eax,%r11
   2c420:	4d 39 d9             	cmp    %r11,%r9
   2c423:	0f 87 47 fc ff ff    	ja     2c070 <vsnprintf+0x670>
   2c429:	e9 64 fc ff ff       	jmp    2c092 <vsnprintf+0x692>
   2c42e:	4d 89 ea             	mov    %r13,%r10
   2c431:	be 59 17 b7 d1       	mov    $0xd1b71759,%esi
   2c436:	4c 0f af d6          	imul   %rsi,%r10
   2c43a:	49 c1 ea 2d          	shr    $0x2d,%r10
   2c43e:	4d 69 da 9a 99 99 19 	imul   $0x1999999a,%r10,%r11
   2c445:	49 c1 eb 20          	shr    $0x20,%r11
   2c449:	45 01 db             	add    %r11d,%r11d
   2c44c:	47 8d 1c 9b          	lea    (%r11,%r11,4),%r11d
   2c450:	45 29 da             	sub    %r11d,%r10d
   2c453:	41 80 ca 30          	or     $0x30,%r10b
   2c457:	44 88 54 24 04       	mov    %r10b,0x4(%rsp)
   2c45c:	49 81 fc a0 86 01 00 	cmp    $0x186a0,%r12
   2c463:	73 79                	jae    2c4de <vsnprintf+0xade>
   2c465:	41 bc 05 00 00 00    	mov    $0x5,%r12d
   2c46b:	45 31 ed             	xor    %r13d,%r13d
   2c46e:	e9 0f f9 ff ff       	jmp    2bd82 <vsnprintf+0x382>
   2c473:	4c 89 de             	mov    %r11,%rsi
   2c476:	41 ba 59 17 b7 d1    	mov    $0xd1b71759,%r10d
   2c47c:	49 0f af f2          	imul   %r10,%rsi
   2c480:	48 c1 ee 2d          	shr    $0x2d,%rsi
   2c484:	4c 69 d6 9a 99 99 19 	imul   $0x1999999a,%rsi,%r10
   2c48b:	49 c1 ea 20          	shr    $0x20,%r10
   2c48f:	45 01 d2             	add    %r10d,%r10d
   2c492:	47 8d 14 92          	lea    (%r10,%r10,4),%r10d
   2c496:	44 29 d6             	sub    %r10d,%esi
   2c499:	40 80 ce 30          	or     $0x30,%sil
   2c49d:	40 88 74 24 04       	mov    %sil,0x4(%rsp)
   2c4a2:	41 81 fc a0 86 01 00 	cmp    $0x186a0,%r12d
   2c4a9:	73 7b                	jae    2c526 <vsnprintf+0xb26>
   2c4ab:	41 bc 05 00 00 00    	mov    $0x5,%r12d
   2c4b1:	45 31 ed             	xor    %r13d,%r13d
   2c4b4:	e9 c3 fc ff ff       	jmp    2c17c <vsnprintf+0x77c>
   2c4b9:	49 81 ff 00 01 00 00 	cmp    $0x100,%r15
   2c4c0:	0f 82 a7 00 00 00    	jb     2c56d <vsnprintf+0xb6d>
   2c4c6:	4d 89 fc             	mov    %r15,%r12
   2c4c9:	49 c1 ec 08          	shr    $0x8,%r12
   2c4cd:	4c 63 d8             	movslq %eax,%r11
   2c4d0:	4d 39 d9             	cmp    %r11,%r9
   2c4d3:	0f 87 cc fb ff ff    	ja     2c0a5 <vsnprintf+0x6a5>
   2c4d9:	e9 e9 fb ff ff       	jmp    2c0c7 <vsnprintf+0x6c7>
   2c4de:	45 89 e2             	mov    %r12d,%r10d
   2c4e1:	41 c1 ea 05          	shr    $0x5,%r10d
   2c4e5:	4d 69 d2 c5 5a 7c 0a 	imul   $0xa7c5ac5,%r10,%r10
   2c4ec:	49 c1 ea 27          	shr    $0x27,%r10
   2c4f0:	45 69 da cd cc 00 00 	imul   $0xcccd,%r10d,%r11d
   2c4f7:	41 c1 eb 12          	shr    $0x12,%r11d
   2c4fb:	41 83 e3 fe          	and    $0xfffffffe,%r11d
   2c4ff:	47 8d 1c 9b          	lea    (%r11,%r11,4),%r11d
   2c503:	45 29 da             	sub    %r11d,%r10d
   2c506:	41 80 ca 30          	or     $0x30,%r10b
   2c50a:	44 88 54 24 05       	mov    %r10b,0x5(%rsp)
   2c50f:	49 81 fc 40 42 0f 00 	cmp    $0xf4240,%r12
   2c516:	73 77                	jae    2c58f <vsnprintf+0xb8f>
   2c518:	41 bc 06 00 00 00    	mov    $0x6,%r12d
   2c51e:	45 31 ed             	xor    %r13d,%r13d
   2c521:	e9 5c f8 ff ff       	jmp    2bd82 <vsnprintf+0x382>
   2c526:	44 89 e6             	mov    %r12d,%esi
   2c529:	c1 ee 05             	shr    $0x5,%esi
   2c52c:	48 69 f6 c5 5a 7c 0a 	imul   $0xa7c5ac5,%rsi,%rsi
   2c533:	48 c1 ee 27          	shr    $0x27,%rsi
   2c537:	44 69 d6 cd cc 00 00 	imul   $0xcccd,%esi,%r10d
   2c53e:	41 c1 ea 12          	shr    $0x12,%r10d
   2c542:	41 83 e2 fe          	and    $0xfffffffe,%r10d
   2c546:	47 8d 14 92          	lea    (%r10,%r10,4),%r10d
   2c54a:	44 29 d6             	sub    %r10d,%esi
   2c54d:	40 80 ce 30          	or     $0x30,%sil
   2c551:	40 88 74 24 05       	mov    %sil,0x5(%rsp)
   2c556:	41 81 fc 40 42 0f 00 	cmp    $0xf4240,%r12d
   2c55d:	73 71                	jae    2c5d0 <vsnprintf+0xbd0>
   2c55f:	41 bc 06 00 00 00    	mov    $0x6,%r12d
   2c565:	45 31 ed             	xor    %r13d,%r13d
   2c568:	e9 0f fc ff ff       	jmp    2c17c <vsnprintf+0x77c>
   2c56d:	49 83 ff 10          	cmp    $0x10,%r15
   2c571:	0f 82 85 fb ff ff    	jb     2c0fc <vsnprintf+0x6fc>
   2c577:	4d 89 fc             	mov    %r15,%r12
   2c57a:	49 c1 ec 04          	shr    $0x4,%r12
   2c57e:	4c 63 d8             	movslq %eax,%r11
   2c581:	4d 39 d9             	cmp    %r11,%r9
   2c584:	0f 87 50 fb ff ff    	ja     2c0da <vsnprintf+0x6da>
   2c58a:	e9 6d fb ff ff       	jmp    2c0fc <vsnprintf+0x6fc>
   2c58f:	4d 69 d5 83 de 1b 43 	imul   $0x431bde83,%r13,%r10
   2c596:	49 c1 ea 32          	shr    $0x32,%r10
   2c59a:	45 69 da 9a 19 00 00 	imul   $0x199a,%r10d,%r11d
   2c5a1:	41 c1 eb 0f          	shr    $0xf,%r11d
   2c5a5:	41 83 e3 fe          	and    $0xfffffffe,%r11d
   2c5a9:	47 8d 1c 9b          	lea    (%r11,%r11,4),%r11d
   2c5ad:	45 29 da             	sub    %r11d,%r10d
   2c5b0:	41 80 ca 30          	or     $0x30,%r10b
   2c5b4:	44 88 54 24 06       	mov    %r10b,0x6(%rsp)
   2c5b9:	49 81 fc 80 96 98 00 	cmp    $0x989680,%r12
   2c5c0:	73 4f                	jae    2c611 <vsnprintf+0xc11>
   2c5c2:	41 bc 07 00 00 00    	mov    $0x7,%r12d
   2c5c8:	45 31 ed             	xor    %r13d,%r13d
   2c5cb:	e9 b2 f7 ff ff       	jmp    2bd82 <vsnprintf+0x382>
   2c5d0:	49 69 f3 83 de 1b 43 	imul   $0x431bde83,%r11,%rsi
   2c5d7:	48 c1 ee 32          	shr    $0x32,%rsi
   2c5db:	44 69 d6 9a 19 00 00 	imul   $0x199a,%esi,%r10d
   2c5e2:	41 c1 ea 0f          	shr    $0xf,%r10d
   2c5e6:	41 83 e2 fe          	and    $0xfffffffe,%r10d
   2c5ea:	47 8d 14 92          	lea    (%r10,%r10,4),%r10d
   2c5ee:	44 29 d6             	sub    %r10d,%esi
   2c5f1:	40 80 ce 30          	or     $0x30,%sil
   2c5f5:	40 88 74 24 06       	mov    %sil,0x6(%rsp)
   2c5fa:	41 81 fc 80 96 98 00 	cmp    $0x989680,%r12d
   2c601:	73 4f                	jae    2c652 <vsnprintf+0xc52>
   2c603:	41 bc 07 00 00 00    	mov    $0x7,%r12d
   2c609:	45 31 ed             	xor    %r13d,%r13d
   2c60c:	e9 6b fb ff ff       	jmp    2c17c <vsnprintf+0x77c>
   2c611:	4d 69 d5 6b ca 5f 6b 	imul   $0x6b5fca6b,%r13,%r10
   2c618:	49 c1 ea 36          	shr    $0x36,%r10
   2c61c:	45 69 da cd 00 00 00 	imul   $0xcd,%r10d,%r11d
   2c623:	41 c1 eb 0a          	shr    $0xa,%r11d
   2c627:	41 83 e3 3e          	and    $0x3e,%r11d
   2c62b:	47 8d 1c 9b          	lea    (%r11,%r11,4),%r11d
   2c62f:	45 28 da             	sub    %r11b,%r10b
   2c632:	41 80 ca 30          	or     $0x30,%r10b
   2c636:	44 88 54 24 07       	mov    %r10b,0x7(%rsp)
   2c63b:	49 81 fc 00 e1 f5 05 	cmp    $0x5f5e100,%r12
   2c642:	73 4f                	jae    2c693 <vsnprintf+0xc93>
   2c644:	41 bc 08 00 00 00    	mov    $0x8,%r12d
   2c64a:	45 31 ed             	xor    %r13d,%r13d
   2c64d:	e9 30 f7 ff ff       	jmp    2bd82 <vsnprintf+0x382>
   2c652:	49 69 f3 6b ca 5f 6b 	imul   $0x6b5fca6b,%r11,%rsi
   2c659:	48 c1 ee 36          	shr    $0x36,%rsi
   2c65d:	44 69 d6 9a 19 00 00 	imul   $0x199a,%esi,%r10d
   2c664:	41 c1 ea 0f          	shr    $0xf,%r10d
   2c668:	41 83 e2 fe          	and    $0xfffffffe,%r10d
   2c66c:	47 8d 14 92          	lea    (%r10,%r10,4),%r10d
   2c670:	44 29 d6             	sub    %r10d,%esi
   2c673:	40 80 ce 30          	or     $0x30,%sil
   2c677:	40 88 74 24 07       	mov    %sil,0x7(%rsp)
   2c67c:	41 81 fc 00 e1 f5 05 	cmp    $0x5f5e100,%r12d
   2c683:	73 53                	jae    2c6d8 <vsnprintf+0xcd8>
   2c685:	41 bc 08 00 00 00    	mov    $0x8,%r12d
   2c68b:	45 31 ed             	xor    %r13d,%r13d
   2c68e:	e9 e9 fa ff ff       	jmp    2c17c <vsnprintf+0x77c>
   2c693:	4d 69 d5 89 3b e6 55 	imul   $0x55e63b89,%r13,%r10
   2c69a:	49 c1 ea 39          	shr    $0x39,%r10
   2c69e:	47 8d 1c 92          	lea    (%r10,%r10,4),%r11d
   2c6a2:	47 8d 1c 9b          	lea    (%r11,%r11,4),%r11d
   2c6a6:	45 01 d3             	add    %r10d,%r11d
   2c6a9:	41 c1 eb 07          	shr    $0x7,%r11d
   2c6ad:	41 83 e3 1e          	and    $0x1e,%r11d
   2c6b1:	47 8d 1c 9b          	lea    (%r11,%r11,4),%r11d
   2c6b5:	45 28 da             	sub    %r11b,%r10b
   2c6b8:	41 80 ca 30          	or     $0x30,%r10b
   2c6bc:	44 88 54 24 08       	mov    %r10b,0x8(%rsp)
   2c6c1:	49 81 fc 00 ca 9a 3b 	cmp    $0x3b9aca00,%r12
   2c6c8:	73 53                	jae    2c71d <vsnprintf+0xd1d>
   2c6ca:	41 bc 09 00 00 00    	mov    $0x9,%r12d
   2c6d0:	45 31 ed             	xor    %r13d,%r13d
   2c6d3:	e9 aa f6 ff ff       	jmp    2bd82 <vsnprintf+0x382>
   2c6d8:	49 69 f3 89 3b e6 55 	imul   $0x55e63b89,%r11,%rsi
   2c6df:	48 c1 ee 39          	shr    $0x39,%rsi
   2c6e3:	44 8d 14 b6          	lea    (%rsi,%rsi,4),%r10d
   2c6e7:	47 8d 14 92          	lea    (%r10,%r10,4),%r10d
   2c6eb:	41 01 f2             	add    %esi,%r10d
   2c6ee:	41 c1 ea 07          	shr    $0x7,%r10d
   2c6f2:	41 83 e2 1e          	and    $0x1e,%r10d
   2c6f6:	47 8d 14 92          	lea    (%r10,%r10,4),%r10d
   2c6fa:	44 28 d6             	sub    %r10b,%sil
   2c6fd:	40 80 ce 30          	or     $0x30,%sil
   2c701:	40 88 74 24 08       	mov    %sil,0x8(%rsp)
   2c706:	41 81 fc 00 ca 9a 3b 	cmp    $0x3b9aca00,%r12d
   2c70d:	73 34                	jae    2c743 <vsnprintf+0xd43>
   2c70f:	41 bc 09 00 00 00    	mov    $0x9,%r12d
   2c715:	45 31 ed             	xor    %r13d,%r13d
   2c718:	e9 5f fa ff ff       	jmp    2c17c <vsnprintf+0x77c>
   2c71d:	41 c1 ec 09          	shr    $0x9,%r12d
   2c721:	4d 69 d4 83 4b 04 00 	imul   $0x44b83,%r12,%r10
   2c728:	49 c1 ea 27          	shr    $0x27,%r10
   2c72c:	41 80 ca 30          	or     $0x30,%r10b
   2c730:	44 88 54 24 09       	mov    %r10b,0x9(%rsp)
   2c735:	41 bc 0a 00 00 00    	mov    $0xa,%r12d
   2c73b:	45 31 ed             	xor    %r13d,%r13d
   2c73e:	e9 3f f6 ff ff       	jmp    2bd82 <vsnprintf+0x382>
   2c743:	41 c1 ec 09          	shr    $0x9,%r12d
   2c747:	49 69 f4 83 4b 04 00 	imul   $0x44b83,%r12,%rsi
   2c74e:	48 c1 ee 27          	shr    $0x27,%rsi
   2c752:	40 80 ce 30          	or     $0x30,%sil
   2c756:	40 88 74 24 09       	mov    %sil,0x9(%rsp)
   2c75b:	41 bc 0a 00 00 00    	mov    $0xa,%r12d
   2c761:	45 31 ed             	xor    %r13d,%r13d
   2c764:	e9 13 fa ff ff       	jmp    2c17c <vsnprintf+0x77c>
   2c769:	48 83 7c 24 18 00    	cmpq   $0x0,0x18(%rsp)
   2c76f:	74 07                	je     2c778 <vsnprintf+0xd78>
   2c771:	48 63 c8             	movslq %eax,%rcx
   2c774:	c6 04 0f 00          	movb   $0x0,(%rdi,%rcx,1)
   2c778:	48 83 c4 20          	add    $0x20,%rsp
   2c77c:	5b                   	pop    %rbx
   2c77d:	41 5c                	pop    %r12
   2c77f:	41 5d                	pop    %r13
   2c781:	41 5e                	pop    %r14
   2c783:	41 5f                	pop    %r15
   2c785:	5d                   	pop    %rbp
   2c786:	c3                   	ret
   2c787:	cc                   	int3
   2c788:	cc                   	int3
   2c789:	cc                   	int3
   2c78a:	cc                   	int3
   2c78b:	cc                   	int3
   2c78c:	cc                   	int3
   2c78d:	cc                   	int3
   2c78e:	cc                   	int3
   2c78f:	cc                   	int3

000000000002c790 <doomgeneric_Create>:
   2c790:	48 83 ec 08          	sub    $0x8,%rsp
   2c794:	48 8d 05 cd dd 08 01 	lea    0x108ddcd(%rip),%rax        # 10ba568 <myargc>
   2c79b:	89 38                	mov    %edi,(%rax)
   2c79d:	48 8d 05 bc dd 08 01 	lea    0x108ddbc(%rip),%rax        # 10ba560 <myargv>
   2c7a4:	48 89 30             	mov    %rsi,(%rax)
   2c7a7:	e8 c4 00 00 00       	call   2c870 <M_FindResponseFile>
   2c7ac:	e8 0f da ff ff       	call   2a1c0 <DG_BeginFrame>
   2c7b1:	48 83 c4 08          	add    $0x8,%rsp
   2c7b5:	e9 26 10 00 00       	jmp    2d7e0 <D_DoomMain>
   2c7ba:	cc                   	int3
   2c7bb:	cc                   	int3
   2c7bc:	cc                   	int3
   2c7bd:	cc                   	int3
   2c7be:	cc                   	int3
   2c7bf:	cc                   	int3

000000000002c7c0 <M_CheckParmWithArgs>:
   2c7c0:	41 57                	push   %r15
   2c7c2:	41 56                	push   %r14
   2c7c4:	41 55                	push   %r13
   2c7c6:	41 54                	push   %r12
   2c7c8:	55                   	push   %rbp
   2c7c9:	53                   	push   %rbx
   2c7ca:	48 83 ec 08          	sub    $0x8,%rsp
   2c7ce:	4c 8d 3d 93 dd 08 01 	lea    0x108dd93(%rip),%r15        # 10ba568 <myargc>
   2c7d5:	41 8b 07             	mov    (%r15),%eax
   2c7d8:	29 f0                	sub    %esi,%eax
   2c7da:	83 f8 01             	cmp    $0x1,%eax
   2c7dd:	7e 59                	jle    2c838 <M_CheckParmWithArgs+0x78>
   2c7df:	41 89 f4             	mov    %esi,%r12d
   2c7e2:	49 89 fd             	mov    %rdi,%r13
   2c7e5:	bd 08 00 00 00       	mov    $0x8,%ebp
   2c7ea:	bb 01 00 00 00       	mov    $0x1,%ebx
   2c7ef:	4c 8d 35 6a dd 08 01 	lea    0x108dd6a(%rip),%r14        # 10ba560 <myargv>
   2c7f6:	eb 19                	jmp    2c811 <M_CheckParmWithArgs+0x51>
   2c7f8:	0f 1f 84 00 00 00 00 	nopl   0x0(%rax,%rax,1)
   2c7ff:	00 
   2c800:	41 8b 07             	mov    (%r15),%eax
   2c803:	83 c3 01             	add    $0x1,%ebx
   2c806:	48 83 c5 08          	add    $0x8,%rbp
   2c80a:	44 29 e0             	sub    %r12d,%eax
   2c80d:	39 d8                	cmp    %ebx,%eax
   2c80f:	7e 27                	jle    2c838 <M_CheckParmWithArgs+0x78>
   2c811:	49 8b 06             	mov    (%r14),%rax
   2c814:	4c 89 ef             	mov    %r13,%rdi
   2c817:	48 8b 34 28          	mov    (%rax,%rbp,1),%rsi
   2c81b:	e8 90 ef ff ff       	call   2b7b0 <strcasecmp>
   2c820:	85 c0                	test   %eax,%eax
   2c822:	75 dc                	jne    2c800 <M_CheckParmWithArgs+0x40>
   2c824:	48 83 c4 08          	add    $0x8,%rsp
   2c828:	89 d8                	mov    %ebx,%eax
   2c82a:	5b                   	pop    %rbx
   2c82b:	5d                   	pop    %rbp
   2c82c:	41 5c                	pop    %r12
   2c82e:	41 5d                	pop    %r13
   2c830:	41 5e                	pop    %r14
   2c832:	41 5f                	pop    %r15
   2c834:	c3                   	ret
   2c835:	0f 1f 00             	nopl   (%rax)
   2c838:	31 db                	xor    %ebx,%ebx
   2c83a:	eb e8                	jmp    2c824 <M_CheckParmWithArgs+0x64>
   2c83c:	cc                   	int3
   2c83d:	cc                   	int3
   2c83e:	cc                   	int3
   2c83f:	cc                   	int3

000000000002c840 <M_CheckParm>:
   2c840:	31 f6                	xor    %esi,%esi
   2c842:	e9 79 ff ff ff       	jmp    2c7c0 <M_CheckParmWithArgs>
   2c847:	cc                   	int3
   2c848:	cc                   	int3
   2c849:	cc                   	int3
   2c84a:	cc                   	int3
   2c84b:	cc                   	int3
   2c84c:	cc                   	int3
   2c84d:	cc                   	int3
   2c84e:	cc                   	int3
   2c84f:	cc                   	int3

000000000002c850 <M_ParmExists>:
   2c850:	48 83 ec 08          	sub    $0x8,%rsp
   2c854:	e8 e7 ff ff ff       	call   2c840 <M_CheckParm>
   2c859:	85 c0                	test   %eax,%eax
   2c85b:	0f 95 c0             	setne  %al
   2c85e:	48 83 c4 08          	add    $0x8,%rsp
   2c862:	0f b6 c0             	movzbl %al,%eax
   2c865:	c3                   	ret
   2c866:	cc                   	int3
   2c867:	cc                   	int3
   2c868:	cc                   	int3
   2c869:	cc                   	int3
   2c86a:	cc                   	int3
   2c86b:	cc                   	int3
   2c86c:	cc                   	int3
   2c86d:	cc                   	int3
   2c86e:	cc                   	int3
   2c86f:	cc                   	int3

000000000002c870 <M_FindResponseFile>:
   2c870:	c3                   	ret
   2c871:	cc                   	int3
   2c872:	cc                   	int3
   2c873:	cc                   	int3
   2c874:	cc                   	int3
   2c875:	cc                   	int3
   2c876:	cc                   	int3
   2c877:	cc                   	int3
   2c878:	cc                   	int3
   2c879:	cc                   	int3
   2c87a:	cc                   	int3
   2c87b:	cc                   	int3
   2c87c:	cc                   	int3
   2c87d:	cc                   	int3
   2c87e:	cc                   	int3
   2c87f:	cc                   	int3

000000000002c880 <D_GrabMouseCallback>:
   2c880:	48 8d 15 69 df 08 01 	lea    0x108df69(%rip),%rdx        # 10ba7f0 <menuactive>
   2c887:	48 8d 05 5a d5 0c 01 	lea    0x10cd55a(%rip),%rax        # 10f9de8 <drone>
   2c88e:	48 8d 0d 7f ea 08 01 	lea    0x108ea7f(%rip),%rcx        # 10bb314 <demoplayback>
   2c895:	8b 00                	mov    (%rax),%eax
   2c897:	0b 02                	or     (%rdx),%eax
   2c899:	48 8d 15 14 f0 08 01 	lea    0x108f014(%rip),%rdx        # 10bb8b4 <paused>
   2c8a0:	0b 02                	or     (%rdx),%eax
   2c8a2:	48 8d 15 23 f0 08 01 	lea    0x108f023(%rip),%rdx        # 10bb8cc <gamestate>
   2c8a9:	8b 12                	mov    (%rdx),%edx
   2c8ab:	0b 11                	or     (%rcx),%edx
   2c8ad:	48 8d 0d e8 dc 08 01 	lea    0x108dce8(%rip),%rcx        # 10ba59c <advancedemo>
   2c8b4:	0b 11                	or     (%rcx),%edx
   2c8b6:	09 d0                	or     %edx,%eax
   2c8b8:	0f 94 c0             	sete   %al
   2c8bb:	0f b6 c0             	movzbl %al,%eax
   2c8be:	c3                   	ret
   2c8bf:	cc                   	int3

000000000002c8c0 <D_Endoom>:
   2c8c0:	48 8d 05 81 bd 03 00 	lea    0x3bd81(%rip),%rax        # 68648 <show_endoom>
   2c8c7:	8b 08                	mov    (%rax),%ecx
   2c8c9:	85 c9                	test   %ecx,%ecx
   2c8cb:	74 33                	je     2c900 <D_Endoom+0x40>
   2c8cd:	48 8d 05 bc dc 08 01 	lea    0x108dcbc(%rip),%rax        # 10ba590 <main_loop_started>
   2c8d4:	8b 10                	mov    (%rax),%edx
   2c8d6:	85 d2                	test   %edx,%edx
   2c8d8:	74 26                	je     2c900 <D_Endoom+0x40>
   2c8da:	48 8d 05 3f f9 08 01 	lea    0x108f93f(%rip),%rax        # 10bc220 <screensaver_mode>
   2c8e1:	8b 00                	mov    (%rax),%eax
   2c8e3:	85 c0                	test   %eax,%eax
   2c8e5:	75 19                	jne    2c900 <D_Endoom+0x40>
   2c8e7:	48 83 ec 08          	sub    $0x8,%rsp
   2c8eb:	48 8d 3d e9 d2 fd ff 	lea    -0x22d17(%rip),%rdi        # 9bdb <weapon_order_table-0x4f65>
   2c8f2:	e8 49 ff ff ff       	call   2c840 <M_CheckParm>
   2c8f7:	85 c0                	test   %eax,%eax
   2c8f9:	7e 0d                	jle    2c908 <D_Endoom+0x48>
   2c8fb:	48 83 c4 08          	add    $0x8,%rsp
   2c8ff:	c3                   	ret
   2c900:	c3                   	ret
   2c901:	0f 1f 80 00 00 00 00 	nopl   0x0(%rax)
   2c908:	be 01 00 00 00       	mov    $0x1,%esi
   2c90d:	48 8d 3d cd d6 fd ff 	lea    -0x22933(%rip),%rdi        # 9fe1 <weapon_order_table-0x4b5f>
   2c914:	e8 47 ac 00 00       	call   37560 <W_CacheLumpName>
   2c919:	48 89 c7             	mov    %rax,%rdi
   2c91c:	e8 ef 92 03 00       	call   65c10 <I_Endoom>
   2c921:	31 ff                	xor    %edi,%edi
   2c923:	48 83 c4 08          	add    $0x8,%rsp
   2c927:	e9 94 e4 ff ff       	jmp    2adc0 <exit>
   2c92c:	cc                   	int3
   2c92d:	cc                   	int3
   2c92e:	cc                   	int3
   2c92f:	cc                   	int3

000000000002c930 <D_ProcessEvents>:
   2c930:	48 8d 05 61 dc 08 01 	lea    0x108dc61(%rip),%rax        # 10ba598 <storedemo>
   2c937:	8b 00                	mov    (%rax),%eax
   2c939:	85 c0                	test   %eax,%eax
   2c93b:	75 33                	jne    2c970 <D_ProcessEvents+0x40>
   2c93d:	53                   	push   %rbx
   2c93e:	66 90                	xchg   %ax,%ax
   2c940:	e8 7b ba 00 00       	call   383c0 <D_PopEvent>
   2c945:	48 89 c3             	mov    %rax,%rbx
   2c948:	48 85 c0             	test   %rax,%rax
   2c94b:	74 21                	je     2c96e <D_ProcessEvents+0x3e>
   2c94d:	48 89 df             	mov    %rbx,%rdi
   2c950:	e8 4b 2e 00 00       	call   2f7a0 <M_Responder>
   2c955:	85 c0                	test   %eax,%eax
   2c957:	75 e7                	jne    2c940 <D_ProcessEvents+0x10>
   2c959:	48 89 df             	mov    %rbx,%rdi
   2c95c:	e8 df 4c 00 00       	call   31640 <G_Responder>
   2c961:	e8 5a ba 00 00       	call   383c0 <D_PopEvent>
   2c966:	48 89 c3             	mov    %rax,%rbx
   2c969:	48 85 c0             	test   %rax,%rax
   2c96c:	75 df                	jne    2c94d <D_ProcessEvents+0x1d>
   2c96e:	5b                   	pop    %rbx
   2c96f:	c3                   	ret
   2c970:	c3                   	ret
   2c971:	cc                   	int3
   2c972:	cc                   	int3
   2c973:	cc                   	int3
   2c974:	cc                   	int3
   2c975:	cc                   	int3
   2c976:	cc                   	int3
   2c977:	cc                   	int3
   2c978:	cc                   	int3
   2c979:	cc                   	int3
   2c97a:	cc                   	int3
   2c97b:	cc                   	int3
   2c97c:	cc                   	int3
   2c97d:	cc                   	int3
   2c97e:	cc                   	int3
   2c97f:	cc                   	int3

000000000002c980 <D_BindVariables>:
   2c980:	41 54                	push   %r12
   2c982:	55                   	push   %rbp
   2c983:	53                   	push   %rbx
   2c984:	31 db                	xor    %ebx,%ebx
   2c986:	48 83 ec 10          	sub    $0x10,%rsp
   2c98a:	e8 51 81 00 00       	call   34ae0 <M_ApplyPlatformDefaults>
   2c98f:	e8 8c b8 00 00       	call   38220 <I_BindVideoVariables>
   2c994:	e8 97 92 03 00       	call   65c30 <I_BindJoystickVariables>
   2c999:	e8 c2 a4 01 00       	call   46e60 <I_BindSoundVariables>
   2c99e:	e8 bd 7a 00 00       	call   34460 <M_BindBaseControls>
   2c9a3:	e8 c8 7c 00 00       	call   34670 <M_BindWeaponControls>
   2c9a8:	e8 e3 7d 00 00       	call   34790 <M_BindMapControls>
   2c9ad:	e8 ce 7e 00 00       	call   34880 <M_BindMenuControls>
   2c9b2:	e8 c9 7e 00 00       	call   34880 <M_BindMenuControls>
   2c9b7:	bf 04 00 00 00       	mov    $0x4,%edi
   2c9bc:	e8 af 80 00 00       	call   34a70 <M_BindChatControls>
   2c9c1:	48 8d 05 38 ef 08 01 	lea    0x108ef38(%rip),%rax        # 10bb900 <key_multi_msgplayer>
   2c9c8:	66 0f 6f 05 c0 1f fe 	movdqa -0x1e040(%rip),%xmm0        # e990 <weapon_order_table-0x1b0>
   2c9cf:	ff 
   2c9d0:	48 8d 3d ae b7 fd ff 	lea    -0x24852(%rip),%rdi        # 8185 <weapon_order_table-0x69bb>
   2c9d7:	48 8d 35 ce c4 03 00 	lea    0x3c4ce(%rip),%rsi        # 68eac <mouseSensitivity>
   2c9de:	0f 11 00             	movups %xmm0,(%rax)
   2c9e1:	e8 1a 82 00 00       	call   34c00 <M_BindVariable>
   2c9e6:	48 8d 35 33 b7 04 00 	lea    0x4b733(%rip),%rsi        # 78120 <sfxVolume>
   2c9ed:	48 8d 3d bd c0 fd ff 	lea    -0x23f43(%rip),%rdi        # 8ab1 <weapon_order_table-0x608f>
   2c9f4:	e8 07 82 00 00       	call   34c00 <M_BindVariable>
   2c9f9:	48 8d 35 1c b7 04 00 	lea    0x4b71c(%rip),%rsi        # 7811c <musicVolume>
   2ca00:	48 8d 3d 3a b1 fd ff 	lea    -0x24ec6(%rip),%rdi        # 7b41 <weapon_order_table-0x6fff>
   2ca07:	e8 f4 81 00 00       	call   34c00 <M_BindVariable>
   2ca0c:	48 8d 35 95 c4 03 00 	lea    0x3c495(%rip),%rsi        # 68ea8 <showMessages>
   2ca13:	48 8d 3d a5 bd fd ff 	lea    -0x2425b(%rip),%rdi        # 87bf <weapon_order_table-0x6381>
   2ca1a:	e8 e1 81 00 00       	call   34c00 <M_BindVariable>
   2ca1f:	48 8d 35 7e c4 03 00 	lea    0x3c47e(%rip),%rsi        # 68ea4 <screenblocks>
   2ca26:	48 8d 3d bc d1 fd ff 	lea    -0x22e44(%rip),%rdi        # 9be9 <weapon_order_table-0x4f57>
   2ca2d:	e8 ce 81 00 00       	call   34c00 <M_BindVariable>
   2ca32:	48 8d 35 13 de 08 01 	lea    0x108de13(%rip),%rsi        # 10ba84c <detailLevel>
   2ca39:	48 8d 3d ea db fd ff 	lea    -0x22416(%rip),%rdi        # a62a <weapon_order_table-0x4516>
   2ca40:	e8 bb 81 00 00       	call   34c00 <M_BindVariable>
   2ca45:	48 8d 35 cc b6 04 00 	lea    0x4b6cc(%rip),%rsi        # 78118 <snd_channels>
   2ca4c:	48 8d 3d 8e b8 fd ff 	lea    -0x24772(%rip),%rdi        # 82e1 <weapon_order_table-0x685f>
   2ca53:	e8 a8 81 00 00       	call   34c00 <M_BindVariable>
   2ca58:	48 8d 35 85 c5 03 00 	lea    0x3c585(%rip),%rsi        # 68fe4 <vanilla_savegame_limit>
   2ca5f:	48 8d 3d c4 cc fd ff 	lea    -0x2333c(%rip),%rdi        # 972a <weapon_order_table-0x5416>
   2ca66:	e8 95 81 00 00       	call   34c00 <M_BindVariable>
   2ca6b:	48 8d 35 6e c5 03 00 	lea    0x3c56e(%rip),%rsi        # 68fe0 <vanilla_demo_limit>
   2ca72:	48 8d 3d 60 c1 fd ff 	lea    -0x23ea0(%rip),%rdi        # 8bd9 <weapon_order_table-0x5f67>
   2ca79:	e8 82 81 00 00       	call   34c00 <M_BindVariable>
   2ca7e:	48 8d 35 c3 bb 03 00 	lea    0x3bbc3(%rip),%rsi        # 68648 <show_endoom>
   2ca85:	48 8d 3d 38 bc fd ff 	lea    -0x243c8(%rip),%rdi        # 86c4 <weapon_order_table-0x647c>
   2ca8c:	e8 6f 81 00 00       	call   34c00 <M_BindVariable>
   2ca91:	48 8d 2d 08 e4 03 00 	lea    0x3e408(%rip),%rbp        # 6aea0 <chat_macros>
   2ca98:	0f 1f 84 00 00 00 00 	nopl   0x0(%rax,%rax,1)
   2ca9f:	00 
   2caa0:	89 d9                	mov    %ebx,%ecx
   2caa2:	48 8d 15 8d db fd ff 	lea    -0x22473(%rip),%rdx        # a636 <weapon_order_table-0x450a>
   2caa9:	be 0c 00 00 00       	mov    $0xc,%esi
   2caae:	31 c0                	xor    %eax,%eax
   2cab0:	48 8d 7c 24 04       	lea    0x4(%rsp),%rdi
   2cab5:	83 c3 01             	add    $0x1,%ebx
   2cab8:	e8 f3 87 00 00       	call   352b0 <M_snprintf>
   2cabd:	48 89 ee             	mov    %rbp,%rsi
   2cac0:	48 8d 7c 24 04       	lea    0x4(%rsp),%rdi
   2cac5:	48 83 c5 08          	add    $0x8,%rbp
   2cac9:	e8 32 81 00 00       	call   34c00 <M_BindVariable>
   2cace:	83 fb 0a             	cmp    $0xa,%ebx
   2cad1:	75 cd                	jne    2caa0 <D_BindVariables+0x120>
   2cad3:	48 83 c4 10          	add    $0x10,%rsp
   2cad7:	5b                   	pop    %rbx
   2cad8:	5d                   	pop    %rbp
   2cad9:	41 5c                	pop    %r12
   2cadb:	c3                   	ret
   2cadc:	cc                   	int3
   2cadd:	cc                   	int3
   2cade:	cc                   	int3
   2cadf:	cc                   	int3

000000000002cae0 <D_PageDrawer>:
   2cae0:	48 83 ec 08          	sub    $0x8,%rsp
   2cae4:	48 8d 05 95 da 08 01 	lea    0x108da95(%rip),%rax        # 10ba580 <pagename>
   2caeb:	be 08 00 00 00       	mov    $0x8,%esi
   2caf0:	48 8b 38             	mov    (%rax),%rdi
   2caf3:	e8 68 aa 00 00       	call   37560 <W_CacheLumpName>
   2caf8:	31 f6                	xor    %esi,%esi
   2cafa:	31 ff                	xor    %edi,%edi
   2cafc:	48 83 c4 08          	add    $0x8,%rsp
   2cb00:	48 89 c2             	mov    %rax,%rdx
   2cb03:	e9 58 c9 00 00       	jmp    39460 <V_DrawPatch>
   2cb08:	cc                   	int3
   2cb09:	cc                   	int3
   2cb0a:	cc                   	int3
   2cb0b:	cc                   	int3
   2cb0c:	cc                   	int3
   2cb0d:	cc                   	int3
   2cb0e:	cc                   	int3
   2cb0f:	cc                   	int3

000000000002cb10 <D_Display>:
   2cb10:	41 55                	push   %r13
   2cb12:	41 54                	push   %r12
   2cb14:	55                   	push   %rbp
   2cb15:	53                   	push   %rbx
   2cb16:	48 83 ec 18          	sub    $0x18,%rsp
   2cb1a:	48 8d 05 7f ed 08 01 	lea    0x108ed7f(%rip),%rax        # 10bb8a0 <nodrawers>
   2cb21:	8b 28                	mov    (%rax),%ebp
   2cb23:	85 ed                	test   %ebp,%ebp
   2cb25:	0f 85 05 01 00 00    	jne    2cc30 <D_Display+0x120>
   2cb2b:	48 8d 05 ca 30 09 01 	lea    0x10930ca(%rip),%rax        # 10bfbfc <setsizeneeded>
   2cb32:	44 8b 18             	mov    (%rax),%r11d
   2cb35:	45 85 db             	test   %r11d,%r11d
   2cb38:	0f 85 43 01 00 00    	jne    2cc81 <D_Display+0x171>
   2cb3e:	4c 8d 25 ff ba 03 00 	lea    0x3baff(%rip),%r12        # 68644 <wipegamestate>
   2cb45:	48 8d 1d 80 ed 08 01 	lea    0x108ed80(%rip),%rbx        # 10bb8cc <gamestate>
   2cb4c:	41 8b 04 24          	mov    (%r12),%eax
   2cb50:	39 03                	cmp    %eax,(%rbx)
   2cb52:	0f 85 05 01 00 00    	jne    2cc5d <D_Display+0x14d>
   2cb58:	85 c0                	test   %eax,%eax
   2cb5a:	0f 85 db 00 00 00    	jne    2cc3b <D_Display+0x12b>
   2cb60:	4c 8d 2d 11 6d 0a 01 	lea    0x10a6d11(%rip),%r13        # 10d3878 <gametic>
   2cb67:	45 8b 55 00          	mov    0x0(%r13),%r10d
   2cb6b:	45 85 d2             	test   %r10d,%r10d
   2cb6e:	0f 85 dc 02 00 00    	jne    2ce50 <D_Display+0x340>
   2cb74:	4c 8d 2d 79 dc 08 01 	lea    0x108dc79(%rip),%r13        # 10ba7f4 <inhelpscreens>
   2cb7b:	e8 60 b4 00 00       	call   37fe0 <I_UpdateNoBlit>
   2cb80:	8b 03                	mov    (%rbx),%eax
   2cb82:	85 c0                	test   %eax,%eax
   2cb84:	0f 85 15 01 00 00    	jne    2cc9f <D_Display+0x18f>
   2cb8a:	48 8d 05 e7 6c 0a 01 	lea    0x10a6ce7(%rip),%rax        # 10d3878 <gametic>
   2cb91:	8b 10                	mov    (%rax),%edx
   2cb93:	48 8d 05 ea d3 0c 01 	lea    0x10cd3ea(%rip),%rax        # 10f9f84 <automapactive>
   2cb9a:	8b 00                	mov    (%rax),%eax
   2cb9c:	85 c0                	test   %eax,%eax
   2cb9e:	0f 85 6d 02 00 00    	jne    2ce11 <D_Display+0x301>
   2cba4:	85 d2                	test   %edx,%edx
   2cba6:	0f 85 ec 02 00 00    	jne    2ce98 <D_Display+0x388>
   2cbac:	44 8b 15 8d ba 03 00 	mov    0x3ba8d(%rip),%r10d        # 68640 <oldgamestate.6>
   2cbb3:	45 85 d2             	test   %r10d,%r10d
   2cbb6:	0f 85 6b 02 00 00    	jne    2ce27 <D_Display+0x317>
   2cbbc:	48 8d 05 c1 d3 0c 01 	lea    0x10cd3c1(%rip),%rax        # 10f9f84 <automapactive>
   2cbc3:	44 8b 08             	mov    (%rax),%r9d
   2cbc6:	45 85 c9             	test   %r9d,%r9d
   2cbc9:	0f 85 dc 00 00 00    	jne    2ccab <D_Display+0x19b>
   2cbcf:	48 8d 05 16 30 09 01 	lea    0x1093016(%rip),%rax        # 10bfbec <scaledviewwidth>
   2cbd6:	81 38 40 01 00 00    	cmpl   $0x140,(%rax)
   2cbdc:	48 8d 05 0d dc 08 01 	lea    0x108dc0d(%rip),%rax        # 10ba7f0 <menuactive>
   2cbe3:	0f 84 c9 00 00 00    	je     2ccb2 <D_Display+0x1a2>
   2cbe9:	8b 10                	mov    (%rax),%edx
   2cbeb:	0b 15 7b d9 08 01    	or     0x108d97b(%rip),%edx        # 10ba56c <menuactivestate.1>
   2cbf1:	75 0e                	jne    2cc01 <D_Display+0xf1>
   2cbf3:	8b 3d 77 d9 08 01    	mov    0x108d977(%rip),%edi        # 10ba570 <viewactivestate.2>
   2cbf9:	85 ff                	test   %edi,%edi
   2cbfb:	0f 85 7e 02 00 00    	jne    2ce7f <D_Display+0x36f>
   2cc01:	c7 05 71 d9 08 01 03 	movl   $0x3,0x108d971(%rip)        # 10ba57c <borderdrawcount.5>
   2cc08:	00 00 00 
   2cc0b:	48 89 44 24 08       	mov    %rax,0x8(%rsp)
   2cc10:	e8 9b ea 00 00       	call   3b6b0 <R_DrawViewBorder>
   2cc15:	83 2d 60 d9 08 01 01 	subl   $0x1,0x108d960(%rip)        # 10ba57c <borderdrawcount.5>
   2cc1c:	48 8b 44 24 08       	mov    0x8(%rsp),%rax
   2cc21:	e9 8c 00 00 00       	jmp    2ccb2 <D_Display+0x1a2>
   2cc26:	66 2e 0f 1f 84 00 00 	cs nopw 0x0(%rax,%rax,1)
   2cc2d:	00 00 00 
   2cc30:	48 83 c4 18          	add    $0x18,%rsp
   2cc34:	5b                   	pop    %rbx
   2cc35:	5d                   	pop    %rbp
   2cc36:	41 5c                	pop    %r12
   2cc38:	41 5d                	pop    %r13
   2cc3a:	c3                   	ret
   2cc3b:	83 f8 02             	cmp    $0x2,%eax
   2cc3e:	0f 84 cd 02 00 00    	je     2cf11 <D_Display+0x401>
   2cc44:	0f 86 24 02 00 00    	jbe    2ce6e <D_Display+0x35e>
   2cc4a:	83 f8 03             	cmp    $0x3,%eax
   2cc4d:	0f 85 21 ff ff ff    	jne    2cb74 <D_Display+0x64>
   2cc53:	e8 88 fe ff ff       	call   2cae0 <D_PageDrawer>
   2cc58:	e9 17 ff ff ff       	jmp    2cb74 <D_Display+0x64>
   2cc5d:	b9 c8 00 00 00       	mov    $0xc8,%ecx
   2cc62:	ba 40 01 00 00       	mov    $0x140,%edx
   2cc67:	31 f6                	xor    %esi,%esi
   2cc69:	31 ff                	xor    %edi,%edi
   2cc6b:	e8 b0 47 03 00       	call   61420 <wipe_StartScreen>
   2cc70:	8b 03                	mov    (%rbx),%eax
   2cc72:	bd 01 00 00 00       	mov    $0x1,%ebp
   2cc77:	85 c0                	test   %eax,%eax
   2cc79:	0f 84 e1 fe ff ff    	je     2cb60 <D_Display+0x50>
   2cc7f:	eb ba                	jmp    2cc3b <D_Display+0x12b>
   2cc81:	e8 ca f2 00 00       	call   3bf50 <R_ExecuteSetViewSize>
   2cc86:	c7 05 b0 b9 03 00 ff 	movl   $0xffffffff,0x3b9b0(%rip)        # 68640 <oldgamestate.6>
   2cc8d:	ff ff ff 
   2cc90:	c7 05 e2 d8 08 01 03 	movl   $0x3,0x108d8e2(%rip)        # 10ba57c <borderdrawcount.5>
   2cc97:	00 00 00 
   2cc9a:	e9 9f fe ff ff       	jmp    2cb3e <D_Display+0x2e>
   2cc9f:	3b 05 9b b9 03 00    	cmp    0x3b99b(%rip),%eax        # 68640 <oldgamestate.6>
   2cca5:	0f 85 3e 02 00 00    	jne    2cee9 <D_Display+0x3d9>
   2ccab:	48 8d 05 3e db 08 01 	lea    0x108db3e(%rip),%rax        # 10ba7f0 <menuactive>
   2ccb2:	48 8d 15 33 e6 08 01 	lea    0x108e633(%rip),%rdx        # 10bb2ec <testcontrols>
   2ccb9:	8b 0a                	mov    (%rdx),%ecx
   2ccbb:	85 c9                	test   %ecx,%ecx
   2ccbd:	0f 85 20 01 00 00    	jne    2cde3 <D_Display+0x2d3>
   2ccc3:	8b 00                	mov    (%rax),%eax
   2ccc5:	89 05 a1 d8 08 01    	mov    %eax,0x108d8a1(%rip)        # 10ba56c <menuactivestate.1>
   2cccb:	48 8d 05 c6 eb 08 01 	lea    0x108ebc6(%rip),%rax        # 10bb898 <viewactive>
   2ccd2:	8b 00                	mov    (%rax),%eax
   2ccd4:	89 05 96 d8 08 01    	mov    %eax,0x108d896(%rip)        # 10ba570 <viewactivestate.2>
   2ccda:	41 8b 45 00          	mov    0x0(%r13),%eax
   2ccde:	89 05 90 d8 08 01    	mov    %eax,0x108d890(%rip)        # 10ba574 <inhelpscreensstate.3>
   2cce4:	8b 03                	mov    (%rbx),%eax
   2cce6:	41 89 04 24          	mov    %eax,(%r12)
   2ccea:	89 05 50 b9 03 00    	mov    %eax,0x3b950(%rip)        # 68640 <oldgamestate.6>
   2ccf0:	48 8d 05 bd eb 08 01 	lea    0x108ebbd(%rip),%rax        # 10bb8b4 <paused>
   2ccf7:	8b 10                	mov    (%rax),%edx
   2ccf9:	85 d2                	test   %edx,%edx
   2ccfb:	74 4f                	je     2cd4c <D_Display+0x23c>
   2ccfd:	48 8d 05 80 d2 0c 01 	lea    0x10cd280(%rip),%rax        # 10f9f84 <automapactive>
   2cd04:	bb 04 00 00 00       	mov    $0x4,%ebx
   2cd09:	8b 00                	mov    (%rax),%eax
   2cd0b:	85 c0                	test   %eax,%eax
   2cd0d:	0f 84 ed 00 00 00    	je     2ce00 <D_Display+0x2f0>
   2cd13:	be 08 00 00 00       	mov    $0x8,%esi
   2cd18:	48 8d 3d 7b d5 fd ff 	lea    -0x22a85(%rip),%rdi        # a29a <weapon_order_table-0x48a6>
   2cd1f:	e8 3c a8 00 00       	call   37560 <W_CacheLumpName>
   2cd24:	89 de                	mov    %ebx,%esi
   2cd26:	48 89 c2             	mov    %rax,%rdx
   2cd29:	48 8d 05 bc 2e 09 01 	lea    0x1092ebc(%rip),%rax        # 10bfbec <scaledviewwidth>
   2cd30:	8b 00                	mov    (%rax),%eax
   2cd32:	8d 78 bc             	lea    -0x44(%rax),%edi
   2cd35:	c1 ef 1f             	shr    $0x1f,%edi
   2cd38:	8d 7c 38 bc          	lea    -0x44(%rax,%rdi,1),%edi
   2cd3c:	48 8d 05 a1 2e 09 01 	lea    0x1092ea1(%rip),%rax        # 10bfbe4 <viewwindowx>
   2cd43:	d1 ff                	sar    $1,%edi
   2cd45:	03 38                	add    (%rax),%edi
   2cd47:	e8 04 d0 00 00       	call   39d50 <V_DrawPatchDirect>
   2cd4c:	e8 6f 24 00 00       	call   2f1c0 <M_Drawer>
   2cd51:	e8 6a 51 02 00       	call   51ec0 <NetUpdate>
   2cd56:	85 ed                	test   %ebp,%ebp
   2cd58:	74 7a                	je     2cdd4 <D_Display+0x2c4>
   2cd5a:	b9 c8 00 00 00       	mov    $0xc8,%ecx
   2cd5f:	ba 40 01 00 00       	mov    $0x140,%edx
   2cd64:	31 f6                	xor    %esi,%esi
   2cd66:	31 ff                	xor    %edi,%edi
   2cd68:	e8 e3 46 03 00       	call   61450 <wipe_EndScreen>
   2cd6d:	e8 ae 57 02 00       	call   52520 <I_GetTime>
   2cd72:	44 8d 60 ff          	lea    -0x1(%rax),%r12d
   2cd76:	66 2e 0f 1f 84 00 00 	cs nopw 0x0(%rax,%rax,1)
   2cd7d:	00 00 00 
   2cd80:	e8 9b 57 02 00       	call   52520 <I_GetTime>
   2cd85:	bf 01 00 00 00       	mov    $0x1,%edi
   2cd8a:	89 c3                	mov    %eax,%ebx
   2cd8c:	89 c5                	mov    %eax,%ebp
   2cd8e:	44 29 e3             	sub    %r12d,%ebx
   2cd91:	e8 fa 57 02 00       	call   52590 <I_Sleep>
   2cd96:	85 db                	test   %ebx,%ebx
   2cd98:	7e e6                	jle    2cd80 <D_Display+0x270>
   2cd9a:	41 89 d9             	mov    %ebx,%r9d
   2cd9d:	31 d2                	xor    %edx,%edx
   2cd9f:	31 f6                	xor    %esi,%esi
   2cda1:	41 b8 c8 00 00 00    	mov    $0xc8,%r8d
   2cda7:	b9 40 01 00 00       	mov    $0x140,%ecx
   2cdac:	bf 01 00 00 00       	mov    $0x1,%edi
   2cdb1:	e8 fa 46 03 00       	call   614b0 <wipe_ScreenWipe>
   2cdb6:	89 c3                	mov    %eax,%ebx
   2cdb8:	e8 23 b2 00 00       	call   37fe0 <I_UpdateNoBlit>
   2cdbd:	e8 fe 23 00 00       	call   2f1c0 <M_Drawer>
   2cdc2:	e8 29 b2 00 00       	call   37ff0 <I_FinishUpdate>
   2cdc7:	85 db                	test   %ebx,%ebx
   2cdc9:	0f 85 61 fe ff ff    	jne    2cc30 <D_Display+0x120>
   2cdcf:	41 89 ec             	mov    %ebp,%r12d
   2cdd2:	eb ac                	jmp    2cd80 <D_Display+0x270>
   2cdd4:	48 83 c4 18          	add    $0x18,%rsp
   2cdd8:	5b                   	pop    %rbx
   2cdd9:	5d                   	pop    %rbp
   2cdda:	41 5c                	pop    %r12
   2cddc:	41 5d                	pop    %r13
   2cdde:	e9 0d b2 00 00       	jmp    37ff0 <I_FinishUpdate>
   2cde3:	48 8d 15 fe e4 08 01 	lea    0x108e4fe(%rip),%rdx        # 10bb2e8 <testcontrols_mousespeed>
   2cdea:	48 89 44 24 08       	mov    %rax,0x8(%rsp)
   2cdef:	8b 3a                	mov    (%rdx),%edi
   2cdf1:	e8 5a d6 00 00       	call   3a450 <V_DrawMouseSpeedBox>
   2cdf6:	48 8b 44 24 08       	mov    0x8(%rsp),%rax
   2cdfb:	e9 c3 fe ff ff       	jmp    2ccc3 <D_Display+0x1b3>
   2ce00:	48 8d 05 d9 2d 09 01 	lea    0x1092dd9(%rip),%rax        # 10bfbe0 <viewwindowy>
   2ce07:	8b 18                	mov    (%rax),%ebx
   2ce09:	83 c3 04             	add    $0x4,%ebx
   2ce0c:	e9 02 ff ff ff       	jmp    2cd13 <D_Display+0x203>
   2ce11:	85 d2                	test   %edx,%edx
   2ce13:	0f 85 b9 00 00 00    	jne    2ced2 <D_Display+0x3c2>
   2ce19:	8b 05 21 b8 03 00    	mov    0x3b821(%rip),%eax        # 68640 <oldgamestate.6>
   2ce1f:	85 c0                	test   %eax,%eax
   2ce21:	0f 84 84 fe ff ff    	je     2ccab <D_Display+0x19b>
   2ce27:	c7 05 3f d7 08 01 00 	movl   $0x0,0x108d73f(%rip)        # 10ba570 <viewactivestate.2>
   2ce2e:	00 00 00 
   2ce31:	e8 5a e5 00 00       	call   3b390 <R_FillBackScreen>
   2ce36:	44 8b 03             	mov    (%rbx),%r8d
   2ce39:	45 85 c0             	test   %r8d,%r8d
   2ce3c:	0f 84 7a fd ff ff    	je     2cbbc <D_Display+0xac>
   2ce42:	e9 64 fe ff ff       	jmp    2ccab <D_Display+0x19b>
   2ce47:	66 0f 1f 84 00 00 00 	nopw   0x0(%rax,%rax,1)
   2ce4e:	00 00 
   2ce50:	e8 0b 94 00 00       	call   36260 <HU_Erase>
   2ce55:	8b 03                	mov    (%rbx),%eax
   2ce57:	83 f8 02             	cmp    $0x2,%eax
   2ce5a:	0f 84 b1 00 00 00    	je     2cf11 <D_Display+0x401>
   2ce60:	0f 87 e4 fd ff ff    	ja     2cc4a <D_Display+0x13a>
   2ce66:	85 c0                	test   %eax,%eax
   2ce68:	0f 84 b4 00 00 00    	je     2cf22 <D_Display+0x412>
   2ce6e:	e8 1d d5 02 00       	call   5a390 <WI_Drawer>
   2ce73:	4c 8d 2d 7a d9 08 01 	lea    0x108d97a(%rip),%r13        # 10ba7f4 <inhelpscreens>
   2ce7a:	e9 fc fc ff ff       	jmp    2cb7b <D_Display+0x6b>
   2ce7f:	8b 35 f7 d6 08 01    	mov    0x108d6f7(%rip),%esi        # 10ba57c <borderdrawcount.5>
   2ce85:	85 f6                	test   %esi,%esi
   2ce87:	0f 84 25 fe ff ff    	je     2ccb2 <D_Display+0x1a2>
   2ce8d:	e9 79 fd ff ff       	jmp    2cc0b <D_Display+0xfb>
   2ce92:	66 0f 1f 44 00 00    	nopw   0x0(%rax,%rax,1)
   2ce98:	48 8d 05 a1 e4 08 01 	lea    0x108e4a1(%rip),%rax        # 10bb340 <displayplayer>
   2ce9f:	48 63 38             	movslq (%rax),%rdi
   2cea2:	48 69 ff 48 01 00 00 	imul   $0x148,%rdi,%rdi
   2cea9:	48 03 3d b0 a6 03 00 	add    0x3a6b0(%rip),%rdi        # 67560 <_DYNAMIC+0x130>
   2ceb0:	e8 fb f6 00 00       	call   3c5b0 <R_RenderPlayerView>
   2ceb5:	8b 03                	mov    (%rbx),%eax
   2ceb7:	85 c0                	test   %eax,%eax
   2ceb9:	0f 85 e0 fd ff ff    	jne    2cc9f <D_Display+0x18f>
   2cebf:	48 8d 05 b2 69 0a 01 	lea    0x10a69b2(%rip),%rax        # 10d3878 <gametic>
   2cec6:	44 8b 18             	mov    (%rax),%r11d
   2cec9:	45 85 db             	test   %r11d,%r11d
   2cecc:	0f 84 da fc ff ff    	je     2cbac <D_Display+0x9c>
   2ced2:	e8 39 93 00 00       	call   36210 <HU_Drawer>
   2ced7:	8b 03                	mov    (%rbx),%eax
   2ced9:	39 05 61 b7 03 00    	cmp    %eax,0x3b761(%rip)        # 68640 <oldgamestate.6>
   2cedf:	74 23                	je     2cf04 <D_Display+0x3f4>
   2cee1:	85 c0                	test   %eax,%eax
   2cee3:	0f 84 c3 fc ff ff    	je     2cbac <D_Display+0x9c>
   2cee9:	be 08 00 00 00       	mov    $0x8,%esi
   2ceee:	48 8d 3d 0d d8 fd ff 	lea    -0x227f3(%rip),%rdi        # a702 <weapon_order_table-0x443e>
   2cef5:	e8 66 a6 00 00       	call   37560 <W_CacheLumpName>
   2cefa:	48 89 c7             	mov    %rax,%rdi
   2cefd:	e8 ee b1 00 00       	call   380f0 <I_SetPalette>
   2cf02:	8b 03                	mov    (%rbx),%eax
   2cf04:	85 c0                	test   %eax,%eax
   2cf06:	0f 84 a0 fc ff ff    	je     2cbac <D_Display+0x9c>
   2cf0c:	e9 9a fd ff ff       	jmp    2ccab <D_Display+0x19b>
   2cf11:	e8 6a 98 02 00       	call   56780 <F_Drawer>
   2cf16:	4c 8d 2d d7 d8 08 01 	lea    0x108d8d7(%rip),%r13        # 10ba7f4 <inhelpscreens>
   2cf1d:	e9 59 fc ff ff       	jmp    2cb7b <D_Display+0x6b>
   2cf22:	41 83 7d 00 00       	cmpl   $0x0,0x0(%r13)
   2cf27:	0f 84 47 fc ff ff    	je     2cb74 <D_Display+0x64>
   2cf2d:	48 8d 05 50 d0 0c 01 	lea    0x10cd050(%rip),%rax        # 10f9f84 <automapactive>
   2cf34:	44 8b 08             	mov    (%rax),%r9d
   2cf37:	45 85 c9             	test   %r9d,%r9d
   2cf3a:	75 72                	jne    2cfae <D_Display+0x49e>
   2cf3c:	48 8d 05 a5 2c 09 01 	lea    0x1092ca5(%rip),%rax        # 10bfbe8 <viewheight>
   2cf43:	89 ee                	mov    %ebp,%esi
   2cf45:	8b 00                	mov    (%rax),%eax
   2cf47:	85 ed                	test   %ebp,%ebp
   2cf49:	75 17                	jne    2cf62 <D_Display+0x452>
   2cf4b:	3d c8 00 00 00       	cmp    $0xc8,%eax
   2cf50:	74 10                	je     2cf62 <D_Display+0x452>
   2cf52:	44 8b 05 1f d6 08 01 	mov    0x108d61f(%rip),%r8d        # 10ba578 <fullscreen.4>
   2cf59:	31 f6                	xor    %esi,%esi
   2cf5b:	45 85 c0             	test   %r8d,%r8d
   2cf5e:	40 0f 95 c6          	setne  %sil
   2cf62:	8b 3d 0c d6 08 01    	mov    0x108d60c(%rip),%edi        # 10ba574 <inhelpscreensstate.3>
   2cf68:	4c 8d 2d 85 d8 08 01 	lea    0x108d885(%rip),%r13        # 10ba7f4 <inhelpscreens>
   2cf6f:	85 ff                	test   %edi,%edi
   2cf71:	74 0d                	je     2cf80 <D_Display+0x470>
   2cf73:	41 8b 4d 00          	mov    0x0(%r13),%ecx
   2cf77:	31 d2                	xor    %edx,%edx
   2cf79:	85 c9                	test   %ecx,%ecx
   2cf7b:	0f 94 c2             	sete   %dl
   2cf7e:	09 d6                	or     %edx,%esi
   2cf80:	31 ff                	xor    %edi,%edi
   2cf82:	3d c8 00 00 00       	cmp    $0xc8,%eax
   2cf87:	40 0f 94 c7          	sete   %dil
   2cf8b:	e8 70 65 02 00       	call   53500 <ST_Drawer>
   2cf90:	48 8d 05 51 2c 09 01 	lea    0x1092c51(%rip),%rax        # 10bfbe8 <viewheight>
   2cf97:	81 38 c8 00 00 00    	cmpl   $0xc8,(%rax)
   2cf9d:	0f 94 c0             	sete   %al
   2cfa0:	0f b6 c0             	movzbl %al,%eax
   2cfa3:	89 05 cf d5 08 01    	mov    %eax,0x108d5cf(%rip)        # 10ba578 <fullscreen.4>
   2cfa9:	e9 cd fb ff ff       	jmp    2cb7b <D_Display+0x6b>
   2cfae:	e8 bd 8b 03 00       	call   65b70 <AM_Drawer>
   2cfb3:	eb 87                	jmp    2cf3c <D_Display+0x42c>
   2cfb5:	cc                   	int3
   2cfb6:	cc                   	int3
   2cfb7:	cc                   	int3
   2cfb8:	cc                   	int3
   2cfb9:	cc                   	int3
   2cfba:	cc                   	int3
   2cfbb:	cc                   	int3
   2cfbc:	cc                   	int3
   2cfbd:	cc                   	int3
   2cfbe:	cc                   	int3
   2cfbf:	cc                   	int3

000000000002cfc0 <doomgeneric_Tick>:
   2cfc0:	48 83 ec 08          	sub    $0x8,%rsp
   2cfc4:	e8 f7 af 00 00       	call   37fc0 <I_StartFrame>
   2cfc9:	e8 82 50 02 00       	call   52050 <TryRunTics>
   2cfce:	48 8d 05 6f e3 08 01 	lea    0x108e36f(%rip),%rax        # 10bb344 <consoleplayer>
   2cfd5:	48 63 00             	movslq (%rax),%rax
   2cfd8:	48 69 c0 48 01 00 00 	imul   $0x148,%rax,%rax
   2cfdf:	48 03 05 7a a5 03 00 	add    0x3a57a(%rip),%rax        # 67560 <_DYNAMIC+0x130>
   2cfe6:	48 8b 38             	mov    (%rax),%rdi
   2cfe9:	e8 02 97 01 00       	call   466f0 <S_UpdateSounds>
   2cfee:	48 8d 05 27 f2 08 01 	lea    0x108f227(%rip),%rax        # 10bc21c <screenvisible>
   2cff5:	8b 00                	mov    (%rax),%eax
   2cff7:	85 c0                	test   %eax,%eax
   2cff9:	75 05                	jne    2d000 <doomgeneric_Tick+0x40>
   2cffb:	48 83 c4 08          	add    $0x8,%rsp
   2cfff:	c3                   	ret
   2d000:	48 83 c4 08          	add    $0x8,%rsp
   2d004:	e9 07 fb ff ff       	jmp    2cb10 <D_Display>
   2d009:	cc                   	int3
   2d00a:	cc                   	int3
   2d00b:	cc                   	int3
   2d00c:	cc                   	int3
   2d00d:	cc                   	int3
   2d00e:	cc                   	int3
   2d00f:	cc                   	int3

000000000002d010 <D_DoomLoop>:
   2d010:	48 83 ec 18          	sub    $0x18,%rsp
   2d014:	48 8d 05 79 d5 08 01 	lea    0x108d579(%rip),%rax        # 10ba594 <bfgedition>
   2d01b:	8b 08                	mov    (%rax),%ecx
   2d01d:	85 c9                	test   %ecx,%ecx
   2d01f:	0f 85 8b 00 00 00    	jne    2d0b0 <D_DoomLoop+0xa0>
   2d025:	48 8d 15 f4 e2 08 01 	lea    0x108e2f4(%rip),%rdx        # 10bb320 <demorecording>
   2d02c:	8b 12                	mov    (%rdx),%edx
   2d02e:	85 d2                	test   %edx,%edx
   2d030:	74 05                	je     2d037 <D_DoomLoop+0x27>
   2d032:	e8 79 64 00 00       	call   334b0 <G_BeginRecording>
   2d037:	48 8d 05 52 d5 08 01 	lea    0x108d552(%rip),%rax        # 10ba590 <main_loop_started>
   2d03e:	c7 00 01 00 00 00    	movl   $0x1,(%rax)
   2d044:	e8 07 50 02 00       	call   52050 <TryRunTics>
   2d049:	48 8d 05 e8 45 0a 01 	lea    0x10a45e8(%rip),%rax        # 10d1638 <gamedescription>
   2d050:	48 8b 38             	mov    (%rax),%rdi
   2d053:	e8 88 b1 00 00       	call   381e0 <I_SetWindowTitle>
   2d058:	e8 93 b1 00 00       	call   381f0 <I_GraphicsCheckCommandLine>
   2d05d:	48 8d 3d 1c f8 ff ff 	lea    -0x7e4(%rip),%rdi        # 2c880 <D_GrabMouseCallback>
   2d064:	e8 97 b1 00 00       	call   38200 <I_SetGrabMouseCallback>
   2d069:	e8 d2 ac 00 00       	call   37d40 <I_InitGraphics>
   2d06e:	e8 9d b1 00 00       	call   38210 <I_EnableLoadingDisk>
   2d073:	e8 88 d1 00 00       	call   3a200 <V_RestoreBuffer>
   2d078:	e8 d3 ee 00 00       	call   3bf50 <R_ExecuteSetViewSize>
   2d07d:	e8 fe 4e 02 00       	call   51f80 <D_StartGameLoop>
   2d082:	48 8d 05 63 e2 08 01 	lea    0x108e263(%rip),%rax        # 10bb2ec <testcontrols>
   2d089:	8b 00                	mov    (%rax),%eax
   2d08b:	85 c0                	test   %eax,%eax
   2d08d:	74 12                	je     2d0a1 <D_DoomLoop+0x91>
   2d08f:	48 8d 05 36 e8 08 01 	lea    0x108e836(%rip),%rax        # 10bb8cc <gamestate>
   2d096:	8b 10                	mov    (%rax),%edx
   2d098:	48 8d 05 a5 b5 03 00 	lea    0x3b5a5(%rip),%rax        # 68644 <wipegamestate>
   2d09f:	89 10                	mov    %edx,(%rax)
   2d0a1:	31 c0                	xor    %eax,%eax
   2d0a3:	48 83 c4 18          	add    $0x18,%rsp
   2d0a7:	e9 14 ff ff ff       	jmp    2cfc0 <doomgeneric_Tick>
   2d0ac:	0f 1f 40 00          	nopl   0x0(%rax)
   2d0b0:	48 8d 05 19 e8 08 01 	lea    0x108e819(%rip),%rax        # 10bb8d0 <gameaction>
   2d0b7:	48 8d 15 62 e2 08 01 	lea    0x108e262(%rip),%rdx        # 10bb320 <demorecording>
   2d0be:	83 38 05             	cmpl   $0x5,(%rax)
   2d0c1:	74 11                	je     2d0d4 <D_DoomLoop+0xc4>
   2d0c3:	48 8d 05 c6 e7 08 01 	lea    0x108e7c6(%rip),%rax        # 10bb890 <netgame>
   2d0ca:	8b 00                	mov    (%rax),%eax
   2d0cc:	0b 02                	or     (%rdx),%eax
   2d0ce:	0f 84 63 ff ff ff    	je     2d037 <D_DoomLoop+0x27>
   2d0d4:	48 8d 3d b5 fe fd ff 	lea    -0x2014b(%rip),%rdi        # cf90 <weapon_order_table-0x1bb0>
   2d0db:	31 c0                	xor    %eax,%eax
   2d0dd:	48 89 54 24 08       	mov    %rdx,0x8(%rsp)
   2d0e2:	e8 29 e3 ff ff       	call   2b410 <printf>
   2d0e7:	48 8b 54 24 08       	mov    0x8(%rsp),%rdx
   2d0ec:	e9 3b ff ff ff       	jmp    2d02c <D_DoomLoop+0x1c>
   2d0f1:	cc                   	int3
   2d0f2:	cc                   	int3
   2d0f3:	cc                   	int3
   2d0f4:	cc                   	int3
   2d0f5:	cc                   	int3
   2d0f6:	cc                   	int3
   2d0f7:	cc                   	int3
   2d0f8:	cc                   	int3
   2d0f9:	cc                   	int3
   2d0fa:	cc                   	int3
   2d0fb:	cc                   	int3
   2d0fc:	cc                   	int3
   2d0fd:	cc                   	int3
   2d0fe:	cc                   	int3
   2d0ff:	cc                   	int3

000000000002d100 <D_AdvanceDemo>:
   2d100:	48 8d 05 95 d4 08 01 	lea    0x108d495(%rip),%rax        # 10ba59c <advancedemo>
   2d107:	c7 00 01 00 00 00    	movl   $0x1,(%rax)
   2d10d:	c3                   	ret
   2d10e:	cc                   	int3
   2d10f:	cc                   	int3

000000000002d110 <D_PageTicker>:
   2d110:	48 8d 15 71 d4 08 01 	lea    0x108d471(%rip),%rdx        # 10ba588 <pagetic>
   2d117:	83 2a 01             	subl   $0x1,(%rdx)
   2d11a:	78 04                	js     2d120 <D_PageTicker+0x10>
   2d11c:	c3                   	ret
   2d11d:	0f 1f 00             	nopl   (%rax)
   2d120:	e9 db ff ff ff       	jmp    2d100 <D_AdvanceDemo>
   2d125:	cc                   	int3
   2d126:	cc                   	int3
   2d127:	cc                   	int3
   2d128:	cc                   	int3
   2d129:	cc                   	int3
   2d12a:	cc                   	int3
   2d12b:	cc                   	int3
   2d12c:	cc                   	int3
   2d12d:	cc                   	int3
   2d12e:	cc                   	int3
   2d12f:	cc                   	int3

000000000002d130 <D_DoAdvanceDemo>:
   2d130:	48 83 ec 08          	sub    $0x8,%rsp
   2d134:	48 8d 05 09 e2 08 01 	lea    0x108e209(%rip),%rax        # 10bb344 <consoleplayer>
   2d13b:	48 8d 0d 4a d4 08 01 	lea    0x108d44a(%rip),%rcx        # 10ba58c <demosequence>
   2d142:	48 63 00             	movslq (%rax),%rax
   2d145:	48 69 c0 48 01 00 00 	imul   $0x148,%rax,%rax
   2d14c:	48 03 05 0d a4 03 00 	add    0x3a40d(%rip),%rax        # 67560 <_DYNAMIC+0x130>
   2d153:	c7 40 08 00 00 00 00 	movl   $0x0,0x8(%rax)
   2d15a:	48 8d 05 3b d4 08 01 	lea    0x108d43b(%rip),%rax        # 10ba59c <advancedemo>
   2d161:	c7 00 00 00 00 00    	movl   $0x0,(%rax)
   2d167:	48 8d 05 3a e7 08 01 	lea    0x108e73a(%rip),%rax        # 10bb8a8 <usergame>
   2d16e:	c7 00 00 00 00 00    	movl   $0x0,(%rax)
   2d174:	48 8d 05 39 e7 08 01 	lea    0x108e739(%rip),%rax        # 10bb8b4 <paused>
   2d17b:	c7 00 00 00 00 00    	movl   $0x0,(%rax)
   2d181:	48 8d 05 48 e7 08 01 	lea    0x108e748(%rip),%rax        # 10bb8d0 <gameaction>
   2d188:	c7 00 00 00 00 00    	movl   $0x0,(%rax)
   2d18e:	8b 01                	mov    (%rcx),%eax
   2d190:	8d 50 01             	lea    0x1(%rax),%edx
   2d193:	48 8d 05 26 df 03 00 	lea    0x3df26(%rip),%rax        # 6b0c0 <gameversion>
   2d19a:	8b 00                	mov    (%rax),%eax
   2d19c:	83 e8 06             	sub    $0x6,%eax
   2d19f:	83 f8 01             	cmp    $0x1,%eax
   2d1a2:	48 63 c2             	movslq %edx,%rax
   2d1a5:	76 61                	jbe    2d208 <D_DoAdvanceDemo+0xd8>
   2d1a7:	48 69 c0 ab aa aa 2a 	imul   $0x2aaaaaab,%rax,%rax
   2d1ae:	89 d6                	mov    %edx,%esi
   2d1b0:	c1 fe 1f             	sar    $0x1f,%esi
   2d1b3:	48 c1 e8 20          	shr    $0x20,%rax
   2d1b7:	29 f0                	sub    %esi,%eax
   2d1b9:	8d 34 40             	lea    (%rax,%rax,2),%esi
   2d1bc:	89 d0                	mov    %edx,%eax
   2d1be:	01 f6                	add    %esi,%esi
   2d1c0:	29 f0                	sub    %esi,%eax
   2d1c2:	89 01                	mov    %eax,(%rcx)
   2d1c4:	83 f8 06             	cmp    $0x6,%eax
   2d1c7:	77 27                	ja     2d1f0 <D_DoAdvanceDemo+0xc0>
   2d1c9:	48 8d 15 a4 17 fe ff 	lea    -0x1e85c(%rip),%rdx        # e974 <weapon_order_table-0x1cc>
   2d1d0:	48 63 04 82          	movslq (%rdx,%rax,4),%rax
   2d1d4:	48 01 d0             	add    %rdx,%rax
   2d1d7:	ff e0                	jmp    *%rax
   2d1d9:	0f 1f 80 00 00 00 00 	nopl   0x0(%rax)
   2d1e0:	48 8d 3d 23 d5 fd ff 	lea    -0x22add(%rip),%rdi        # a70a <weapon_order_table-0x4436>
   2d1e7:	e8 34 64 00 00       	call   33620 <G_DeferedPlayDemo>
   2d1ec:	0f 1f 40 00          	nopl   0x0(%rax)
   2d1f0:	48 8d 05 9d d3 08 01 	lea    0x108d39d(%rip),%rax        # 10ba594 <bfgedition>
   2d1f7:	8b 00                	mov    (%rax),%eax
   2d1f9:	85 c0                	test   %eax,%eax
   2d1fb:	75 33                	jne    2d230 <D_DoAdvanceDemo+0x100>
   2d1fd:	48 83 c4 08          	add    $0x8,%rsp
   2d201:	c3                   	ret
   2d202:	66 0f 1f 44 00 00    	nopw   0x0(%rax,%rax,1)
   2d208:	48 69 c0 93 24 49 92 	imul   $0xffffffff92492493,%rax,%rax
   2d20f:	89 d6                	mov    %edx,%esi
   2d211:	c1 fe 1f             	sar    $0x1f,%esi
   2d214:	48 c1 e8 20          	shr    $0x20,%rax
   2d218:	01 d0                	add    %edx,%eax
   2d21a:	c1 f8 02             	sar    $0x2,%eax
   2d21d:	29 f0                	sub    %esi,%eax
   2d21f:	8d 34 c5 00 00 00 00 	lea    0x0(,%rax,8),%esi
   2d226:	29 c6                	sub    %eax,%esi
   2d228:	89 d0                	mov    %edx,%eax
   2d22a:	29 f0                	sub    %esi,%eax
   2d22c:	eb 94                	jmp    2d1c2 <D_DoAdvanceDemo+0x92>
   2d22e:	66 90                	xchg   %ax,%ax
   2d230:	48 8d 05 49 d3 08 01 	lea    0x108d349(%rip),%rax        # 10ba580 <pagename>
   2d237:	48 8d 35 5a bd fd ff 	lea    -0x242a6(%rip),%rsi        # 8f98 <weapon_order_table-0x5ba8>
   2d23e:	48 8b 38             	mov    (%rax),%rdi
   2d241:	e8 6a e5 ff ff       	call   2b7b0 <strcasecmp>
   2d246:	85 c0                	test   %eax,%eax
   2d248:	75 b3                	jne    2d1fd <D_DoAdvanceDemo+0xcd>
   2d24a:	48 8d 3d a8 aa fd ff 	lea    -0x25558(%rip),%rdi        # 7cf9 <weapon_order_table-0x6e47>
   2d251:	e8 0a a0 00 00       	call   37260 <W_CheckNumForName>
   2d256:	85 c0                	test   %eax,%eax
   2d258:	79 a3                	jns    2d1fd <D_DoAdvanceDemo+0xcd>
   2d25a:	48 8d 05 1f d3 08 01 	lea    0x108d31f(%rip),%rax        # 10ba580 <pagename>
   2d261:	48 8d 3d ea c1 fd ff 	lea    -0x23e16(%rip),%rdi        # 9452 <weapon_order_table-0x56ee>
   2d268:	48 89 38             	mov    %rdi,(%rax)
   2d26b:	eb 90                	jmp    2d1fd <D_DoAdvanceDemo+0xcd>
   2d26d:	0f 1f 00             	nopl   (%rax)
   2d270:	48 8d 3d c1 ca fd ff 	lea    -0x2353f(%rip),%rdi        # 9d38 <weapon_order_table-0x4e08>
   2d277:	e8 a4 63 00 00       	call   33620 <G_DeferedPlayDemo>
   2d27c:	e9 6f ff ff ff       	jmp    2d1f0 <D_DoAdvanceDemo+0xc0>
   2d281:	0f 1f 80 00 00 00 00 	nopl   0x0(%rax)
   2d288:	48 8d 05 35 de 03 00 	lea    0x3de35(%rip),%rax        # 6b0c4 <gamemode>
   2d28f:	83 38 02             	cmpl   $0x2,(%rax)
   2d292:	48 8d 05 ef d2 08 01 	lea    0x108d2ef(%rip),%rax        # 10ba588 <pagetic>
   2d299:	0f 84 e1 00 00 00    	je     2d380 <D_DoAdvanceDemo+0x250>
   2d29f:	c7 00 aa 00 00 00    	movl   $0xaa,(%rax)
   2d2a5:	48 8d 05 20 e6 08 01 	lea    0x108e620(%rip),%rax        # 10bb8cc <gamestate>
   2d2ac:	48 8d 3d e5 bc fd ff 	lea    -0x2431b(%rip),%rdi        # 8f98 <weapon_order_table-0x5ba8>
   2d2b3:	c7 00 03 00 00 00    	movl   $0x3,(%rax)
   2d2b9:	48 8d 05 c0 d2 08 01 	lea    0x108d2c0(%rip),%rax        # 10ba580 <pagename>
   2d2c0:	48 89 38             	mov    %rdi,(%rax)
   2d2c3:	bf 1d 00 00 00       	mov    $0x1d,%edi
   2d2c8:	e8 33 99 01 00       	call   46c00 <S_StartMusic>
   2d2cd:	e9 1e ff ff ff       	jmp    2d1f0 <D_DoAdvanceDemo+0xc0>
   2d2d2:	66 0f 1f 44 00 00    	nopw   0x0(%rax,%rax,1)
   2d2d8:	48 8d 3d 53 ca fd ff 	lea    -0x235ad(%rip),%rdi        # 9d32 <weapon_order_table-0x4e0e>
   2d2df:	e8 3c 63 00 00       	call   33620 <G_DeferedPlayDemo>
   2d2e4:	e9 07 ff ff ff       	jmp    2d1f0 <D_DoAdvanceDemo+0xc0>
   2d2e9:	0f 1f 80 00 00 00 00 	nopl   0x0(%rax)
   2d2f0:	48 8d 05 91 d2 08 01 	lea    0x108d291(%rip),%rax        # 10ba588 <pagetic>
   2d2f7:	48 8d 3d ee b8 fd ff 	lea    -0x24712(%rip),%rdi        # 8bec <weapon_order_table-0x5f54>
   2d2fe:	c7 00 c8 00 00 00    	movl   $0xc8,(%rax)
   2d304:	48 8d 05 c1 e5 08 01 	lea    0x108e5c1(%rip),%rax        # 10bb8cc <gamestate>
   2d30b:	c7 00 03 00 00 00    	movl   $0x3,(%rax)
   2d311:	48 8d 05 68 d2 08 01 	lea    0x108d268(%rip),%rax        # 10ba580 <pagename>
   2d318:	48 89 38             	mov    %rdi,(%rax)
   2d31b:	e9 d0 fe ff ff       	jmp    2d1f0 <D_DoAdvanceDemo+0xc0>
   2d320:	48 8d 3d 21 be fd ff 	lea    -0x241df(%rip),%rdi        # 9148 <weapon_order_table-0x59f8>
   2d327:	e8 f4 62 00 00       	call   33620 <G_DeferedPlayDemo>
   2d32c:	e9 bf fe ff ff       	jmp    2d1f0 <D_DoAdvanceDemo+0xc0>
   2d331:	0f 1f 80 00 00 00 00 	nopl   0x0(%rax)
   2d338:	48 8d 05 8d e5 08 01 	lea    0x108e58d(%rip),%rax        # 10bb8cc <gamestate>
   2d33f:	c7 00 03 00 00 00    	movl   $0x3,(%rax)
   2d345:	48 8d 05 78 dd 03 00 	lea    0x3dd78(%rip),%rax        # 6b0c4 <gamemode>
   2d34c:	8b 00                	mov    (%rax),%eax
   2d34e:	83 f8 02             	cmp    $0x2,%eax
   2d351:	74 7d                	je     2d3d0 <D_DoAdvanceDemo+0x2a0>
   2d353:	48 8d 15 2e d2 08 01 	lea    0x108d22e(%rip),%rdx        # 10ba588 <pagetic>
   2d35a:	83 f8 03             	cmp    $0x3,%eax
   2d35d:	48 8d 05 1c d2 08 01 	lea    0x108d21c(%rip),%rax        # 10ba580 <pagename>
   2d364:	c7 02 c8 00 00 00    	movl   $0xc8,(%rdx)
   2d36a:	74 4c                	je     2d3b8 <D_DoAdvanceDemo+0x288>
   2d36c:	48 8d 3d 30 ba fd ff 	lea    -0x245d0(%rip),%rdi        # 8da3 <weapon_order_table-0x5d9d>
   2d373:	48 89 38             	mov    %rdi,(%rax)
   2d376:	e9 75 fe ff ff       	jmp    2d1f0 <D_DoAdvanceDemo+0xc0>
   2d37b:	0f 1f 44 00 00       	nopl   0x0(%rax,%rax,1)
   2d380:	c7 00 81 01 00 00    	movl   $0x181,(%rax)
   2d386:	48 8d 05 3f e5 08 01 	lea    0x108e53f(%rip),%rax        # 10bb8cc <gamestate>
   2d38d:	c7 00 03 00 00 00    	movl   $0x3,(%rax)
   2d393:	48 8d 05 e6 d1 08 01 	lea    0x108d1e6(%rip),%rax        # 10ba580 <pagename>
   2d39a:	48 8d 3d f7 bb fd ff 	lea    -0x24409(%rip),%rdi        # 8f98 <weapon_order_table-0x5ba8>
   2d3a1:	48 89 38             	mov    %rdi,(%rax)
   2d3a4:	bf 42 00 00 00       	mov    $0x42,%edi
   2d3a9:	e8 52 98 01 00       	call   46c00 <S_StartMusic>
   2d3ae:	e9 3d fe ff ff       	jmp    2d1f0 <D_DoAdvanceDemo+0xc0>
   2d3b3:	0f 1f 44 00 00       	nopl   0x0(%rax,%rax,1)
   2d3b8:	48 8d 3d 2d b8 fd ff 	lea    -0x247d3(%rip),%rdi        # 8bec <weapon_order_table-0x5f54>
   2d3bf:	48 89 38             	mov    %rdi,(%rax)
   2d3c2:	e9 29 fe ff ff       	jmp    2d1f0 <D_DoAdvanceDemo+0xc0>
   2d3c7:	66 0f 1f 84 00 00 00 	nopw   0x0(%rax,%rax,1)
   2d3ce:	00 00 
   2d3d0:	48 8d 05 b1 d1 08 01 	lea    0x108d1b1(%rip),%rax        # 10ba588 <pagetic>
   2d3d7:	c7 00 81 01 00 00    	movl   $0x181,(%rax)
   2d3dd:	eb b4                	jmp    2d393 <D_DoAdvanceDemo+0x263>
   2d3df:	cc                   	int3

000000000002d3e0 <D_StartTitle>:
   2d3e0:	48 8d 05 e9 e4 08 01 	lea    0x108e4e9(%rip),%rax        # 10bb8d0 <gameaction>
   2d3e7:	c7 00 00 00 00 00    	movl   $0x0,(%rax)
   2d3ed:	48 8d 05 98 d1 08 01 	lea    0x108d198(%rip),%rax        # 10ba58c <demosequence>
   2d3f4:	c7 00 ff ff ff ff    	movl   $0xffffffff,(%rax)
   2d3fa:	e9 01 fd ff ff       	jmp    2d100 <D_AdvanceDemo>
   2d3ff:	cc                   	int3

000000000002d400 <D_IdentifyVersion>:
   2d400:	41 55                	push   %r13
   2d402:	41 54                	push   %r12
   2d404:	55                   	push   %rbp
   2d405:	53                   	push   %rbx
   2d406:	48 83 ec 18          	sub    $0x18,%rsp
   2d40a:	48 8d 05 2f 42 0a 01 	lea    0x10a422f(%rip),%rax        # 10d1640 <gamemission>
   2d411:	8b 00                	mov    (%rax),%eax
   2d413:	83 f8 09             	cmp    $0x9,%eax
   2d416:	0f 84 04 01 00 00    	je     2d520 <D_IdentifyVersion+0x120>
   2d41c:	83 e0 fb             	and    $0xfffffffb,%eax
   2d41f:	85 c0                	test   %eax,%eax
   2d421:	75 2d                	jne    2d450 <D_IdentifyVersion+0x50>
   2d423:	48 8d 3d cc c7 fd ff 	lea    -0x23834(%rip),%rdi        # 9bf6 <weapon_order_table-0x4f4a>
   2d42a:	e8 31 9e 00 00       	call   37260 <W_CheckNumForName>
   2d42f:	85 c0                	test   %eax,%eax
   2d431:	0f 8e 69 01 00 00    	jle    2d5a0 <D_IdentifyVersion+0x1a0>
   2d437:	48 8d 05 86 dc 03 00 	lea    0x3dc86(%rip),%rax        # 6b0c4 <gamemode>
   2d43e:	c7 00 03 00 00 00    	movl   $0x3,(%rax)
   2d444:	48 83 c4 18          	add    $0x18,%rsp
   2d448:	5b                   	pop    %rbx
   2d449:	5d                   	pop    %rbp
   2d44a:	41 5c                	pop    %r12
   2d44c:	41 5d                	pop    %r13
   2d44e:	c3                   	ret
   2d44f:	90                   	nop
   2d450:	48 8d 05 6d dc 03 00 	lea    0x3dc6d(%rip),%rax        # 6b0c4 <gamemode>
   2d457:	be 01 00 00 00       	mov    $0x1,%esi
   2d45c:	48 8d 3d 34 ad fd ff 	lea    -0x252cc(%rip),%rdi        # 8197 <weapon_order_table-0x69a9>
   2d463:	c7 00 02 00 00 00    	movl   $0x2,(%rax)
   2d469:	e8 52 f3 ff ff       	call   2c7c0 <M_CheckParmWithArgs>
   2d46e:	85 c0                	test   %eax,%eax
   2d470:	7e d2                	jle    2d444 <D_IdentifyVersion+0x44>
   2d472:	48 8d 15 e7 d0 08 01 	lea    0x108d0e7(%rip),%rdx        # 10ba560 <myargv>
   2d479:	48 98                	cltq
   2d47b:	4c 8d 25 5e 9a 03 00 	lea    0x39a5e(%rip),%r12        # 66ee0 <packs.0>
   2d482:	31 db                	xor    %ebx,%ebx
   2d484:	4c 89 e5             	mov    %r12,%rbp
   2d487:	48 8b 12             	mov    (%rdx),%rdx
   2d48a:	4c 8b 6c c2 08       	mov    0x8(%rdx,%rax,8),%r13
   2d48f:	48 8b 75 00          	mov    0x0(%rbp),%rsi
   2d493:	4c 89 ef             	mov    %r13,%rdi
   2d496:	e8 15 e3 ff ff       	call   2b7b0 <strcasecmp>
   2d49b:	85 c0                	test   %eax,%eax
   2d49d:	0f 84 70 01 00 00    	je     2d613 <D_IdentifyVersion+0x213>
   2d4a3:	83 c3 01             	add    $0x1,%ebx
   2d4a6:	48 83 c5 10          	add    $0x10,%rbp
   2d4aa:	83 fb 03             	cmp    $0x3,%ebx
   2d4ad:	75 e0                	jne    2d48f <D_IdentifyVersion+0x8f>
   2d4af:	48 8d 3d 72 b0 fd ff 	lea    -0x24f8e(%rip),%rdi        # 8528 <weapon_order_table-0x6618>
   2d4b6:	31 c0                	xor    %eax,%eax
   2d4b8:	e8 53 df ff ff       	call   2b410 <printf>
   2d4bd:	48 8d 35 4b b4 fd ff 	lea    -0x24bb5(%rip),%rsi        # 890f <weapon_order_table-0x6231>
   2d4c4:	48 8d 3d 1d cb fd ff 	lea    -0x234e3(%rip),%rdi        # 9fe8 <weapon_order_table-0x4b58>
   2d4cb:	31 c0                	xor    %eax,%eax
   2d4cd:	e8 3e df ff ff       	call   2b410 <printf>
   2d4d2:	48 8d 35 75 bc fd ff 	lea    -0x2438b(%rip),%rsi        # 914e <weapon_order_table-0x59f2>
   2d4d9:	48 8d 3d 08 cb fd ff 	lea    -0x234f8(%rip),%rdi        # 9fe8 <weapon_order_table-0x4b58>
   2d4e0:	31 c0                	xor    %eax,%eax
   2d4e2:	e8 29 df ff ff       	call   2b410 <printf>
   2d4e7:	48 8d 35 40 cc fd ff 	lea    -0x233c0(%rip),%rsi        # a12e <weapon_order_table-0x4a12>
   2d4ee:	48 8d 3d f3 ca fd ff 	lea    -0x2350d(%rip),%rdi        # 9fe8 <weapon_order_table-0x4b58>
   2d4f5:	31 c0                	xor    %eax,%eax
   2d4f7:	e8 14 df ff ff       	call   2b410 <printf>
   2d4fc:	48 83 c4 18          	add    $0x18,%rsp
   2d500:	4c 89 ee             	mov    %r13,%rsi
   2d503:	31 c0                	xor    %eax,%eax
   2d505:	5b                   	pop    %rbx
   2d506:	48 8d 3d 4e bf fd ff 	lea    -0x240b2(%rip),%rdi        # 945b <weapon_order_table-0x56e5>
   2d50d:	5d                   	pop    %rbp
   2d50e:	41 5c                	pop    %r12
   2d510:	41 5d                	pop    %r13
   2d512:	e9 29 84 00 00       	jmp    35940 <I_Error>
   2d517:	66 0f 1f 84 00 00 00 	nopw   0x0(%rax,%rax,1)
   2d51e:	00 00 
   2d520:	4c 8d 2d e1 ec 08 01 	lea    0x108ece1(%rip),%r13        # 10bc208 <numlumps>
   2d527:	41 8b 45 00          	mov    0x0(%r13),%eax
   2d52b:	85 c0                	test   %eax,%eax
   2d52d:	0f 84 af 00 00 00    	je     2d5e2 <D_IdentifyVersion+0x1e2>
   2d533:	4c 8d 25 d6 ec 08 01 	lea    0x108ecd6(%rip),%r12        # 10bc210 <lumpinfo>
   2d53a:	31 db                	xor    %ebx,%ebx
   2d53c:	31 ed                	xor    %ebp,%ebp
   2d53e:	eb 29                	jmp    2d569 <D_IdentifyVersion+0x169>
   2d540:	49 8b 3c 24          	mov    (%r12),%rdi
   2d544:	ba 08 00 00 00       	mov    $0x8,%edx
   2d549:	48 8d 35 ab aa fd ff 	lea    -0x25555(%rip),%rsi        # 7ffb <weapon_order_table-0x6b45>
   2d550:	48 01 df             	add    %rbx,%rdi
   2d553:	e8 68 e3 ff ff       	call   2b8c0 <strncasecmp>
   2d558:	85 c0                	test   %eax,%eax
   2d55a:	74 6c                	je     2d5c8 <D_IdentifyVersion+0x1c8>
   2d55c:	83 c5 01             	add    $0x1,%ebp
   2d55f:	48 83 c3 28          	add    $0x28,%rbx
   2d563:	41 3b 6d 00          	cmp    0x0(%r13),%ebp
   2d567:	73 67                	jae    2d5d0 <D_IdentifyVersion+0x1d0>
   2d569:	49 8b 3c 24          	mov    (%r12),%rdi
   2d56d:	ba 08 00 00 00       	mov    $0x8,%edx
   2d572:	48 8d 35 c8 c1 fd ff 	lea    -0x23e38(%rip),%rsi        # 9741 <weapon_order_table-0x53ff>
   2d579:	48 01 df             	add    %rbx,%rdi
   2d57c:	e8 3f e3 ff ff       	call   2b8c0 <strncasecmp>
   2d581:	85 c0                	test   %eax,%eax
   2d583:	75 bb                	jne    2d540 <D_IdentifyVersion+0x140>
   2d585:	b8 01 00 00 00       	mov    $0x1,%eax
   2d58a:	48 8d 0d af 40 0a 01 	lea    0x10a40af(%rip),%rcx        # 10d1640 <gamemission>
   2d591:	89 01                	mov    %eax,(%rcx)
   2d593:	e9 87 fe ff ff       	jmp    2d41f <D_IdentifyVersion+0x1f>
   2d598:	0f 1f 84 00 00 00 00 	nopl   0x0(%rax,%rax,1)
   2d59f:	00 
   2d5a0:	48 8d 3d f3 c8 fd ff 	lea    -0x2370d(%rip),%rdi        # 9e9a <weapon_order_table-0x4ca6>
   2d5a7:	e8 b4 9c 00 00       	call   37260 <W_CheckNumForName>
   2d5ac:	85 c0                	test   %eax,%eax
   2d5ae:	48 8d 05 0f db 03 00 	lea    0x3db0f(%rip),%rax        # 6b0c4 <gamemode>
   2d5b5:	7e 51                	jle    2d608 <D_IdentifyVersion+0x208>
   2d5b7:	c7 00 01 00 00 00    	movl   $0x1,(%rax)
   2d5bd:	e9 82 fe ff ff       	jmp    2d444 <D_IdentifyVersion+0x44>
   2d5c2:	66 0f 1f 44 00 00    	nopw   0x0(%rax,%rax,1)
   2d5c8:	31 c0                	xor    %eax,%eax
   2d5ca:	eb be                	jmp    2d58a <D_IdentifyVersion+0x18a>
   2d5cc:	0f 1f 40 00          	nopl   0x0(%rax)
   2d5d0:	48 8d 05 69 40 0a 01 	lea    0x10a4069(%rip),%rax        # 10d1640 <gamemission>
   2d5d7:	8b 00                	mov    (%rax),%eax
   2d5d9:	83 f8 09             	cmp    $0x9,%eax
   2d5dc:	0f 85 3a fe ff ff    	jne    2d41c <D_IdentifyVersion+0x1c>
   2d5e2:	31 c0                	xor    %eax,%eax
   2d5e4:	48 8d 3d 07 c3 fd ff 	lea    -0x23cf9(%rip),%rdi        # 98f2 <weapon_order_table-0x524e>
   2d5eb:	e8 50 83 00 00       	call   35940 <I_Error>
   2d5f0:	48 8d 05 49 40 0a 01 	lea    0x10a4049(%rip),%rax        # 10d1640 <gamemission>
   2d5f7:	8b 00                	mov    (%rax),%eax
   2d5f9:	89 44 24 0c          	mov    %eax,0xc(%rsp)
   2d5fd:	e9 1a fe ff ff       	jmp    2d41c <D_IdentifyVersion+0x1c>
   2d602:	66 0f 1f 44 00 00    	nopw   0x0(%rax,%rax,1)
   2d608:	c7 00 00 00 00 00    	movl   $0x0,(%rax)
   2d60e:	e9 31 fe ff ff       	jmp    2d444 <D_IdentifyVersion+0x44>
   2d613:	48 63 db             	movslq %ebx,%rbx
   2d616:	48 8d 0d 23 40 0a 01 	lea    0x10a4023(%rip),%rcx        # 10d1640 <gamemission>
   2d61d:	48 c1 e3 04          	shl    $0x4,%rbx
   2d621:	41 8b 44 1c 08       	mov    0x8(%r12,%rbx,1),%eax
   2d626:	89 01                	mov    %eax,(%rcx)
   2d628:	e9 17 fe ff ff       	jmp    2d444 <D_IdentifyVersion+0x44>
   2d62d:	cc                   	int3
   2d62e:	cc                   	int3
   2d62f:	cc                   	int3

000000000002d630 <D_SetGameDescription>:
   2d630:	53                   	push   %rbx
   2d631:	48 8d 3d 67 c8 fd ff 	lea    -0x23799(%rip),%rdi        # 9e9f <weapon_order_table-0x4ca1>
   2d638:	e8 23 9c 00 00       	call   37260 <W_CheckNumForName>
   2d63d:	48 8d 3d 35 be fd ff 	lea    -0x241cb(%rip),%rdi        # 9479 <weapon_order_table-0x56c7>
   2d644:	89 c3                	mov    %eax,%ebx
   2d646:	e8 15 9c 00 00       	call   37260 <W_CheckNumForName>
   2d64b:	48 8d 15 e6 3f 0a 01 	lea    0x10a3fe6(%rip),%rdx        # 10d1638 <gamedescription>
   2d652:	89 c1                	mov    %eax,%ecx
   2d654:	48 8d 05 e7 cf fd ff 	lea    -0x23019(%rip),%rax        # a642 <weapon_order_table-0x44fe>
   2d65b:	48 89 02             	mov    %rax,(%rdx)
   2d65e:	48 8d 05 db 3f 0a 01 	lea    0x10a3fdb(%rip),%rax        # 10d1640 <gamemission>
   2d665:	8b 00                	mov    (%rax),%eax
   2d667:	89 c6                	mov    %eax,%esi
   2d669:	83 e6 fb             	and    $0xfffffffb,%esi
   2d66c:	75 12                	jne    2d680 <D_SetGameDescription+0x50>
   2d66e:	85 db                	test   %ebx,%ebx
   2d670:	78 26                	js     2d698 <D_SetGameDescription+0x68>
   2d672:	48 8d 05 97 c2 fd ff 	lea    -0x23d69(%rip),%rax        # 9910 <weapon_order_table-0x5230>
   2d679:	48 89 02             	mov    %rax,(%rdx)
   2d67c:	5b                   	pop    %rbx
   2d67d:	c3                   	ret
   2d67e:	66 90                	xchg   %ax,%ax
   2d680:	85 db                	test   %ebx,%ebx
   2d682:	78 3c                	js     2d6c0 <D_SetGameDescription+0x90>
   2d684:	85 c9                	test   %ecx,%ecx
   2d686:	78 58                	js     2d6e0 <D_SetGameDescription+0xb0>
   2d688:	48 8d 05 bc cd fd ff 	lea    -0x23244(%rip),%rax        # a44b <weapon_order_table-0x46f5>
   2d68f:	48 89 02             	mov    %rax,(%rdx)
   2d692:	5b                   	pop    %rbx
   2d693:	c3                   	ret
   2d694:	0f 1f 40 00          	nopl   0x0(%rax)
   2d698:	48 8d 05 25 da 03 00 	lea    0x3da25(%rip),%rax        # 6b0c4 <gamemode>
   2d69f:	8b 00                	mov    (%rax),%eax
   2d6a1:	83 f8 03             	cmp    $0x3,%eax
   2d6a4:	74 5a                	je     2d700 <D_SetGameDescription+0xd0>
   2d6a6:	83 f8 01             	cmp    $0x1,%eax
   2d6a9:	74 65                	je     2d710 <D_SetGameDescription+0xe0>
   2d6ab:	85 c0                	test   %eax,%eax
   2d6ad:	75 cd                	jne    2d67c <D_SetGameDescription+0x4c>
   2d6af:	48 8d 05 17 b1 fd ff 	lea    -0x24ee9(%rip),%rax        # 87cd <weapon_order_table-0x6373>
   2d6b6:	48 89 02             	mov    %rax,(%rdx)
   2d6b9:	5b                   	pop    %rbx
   2d6ba:	c3                   	ret
   2d6bb:	0f 1f 44 00 00       	nopl   0x0(%rax,%rax,1)
   2d6c0:	83 fe 01             	cmp    $0x1,%esi
   2d6c3:	74 2b                	je     2d6f0 <D_SetGameDescription+0xc0>
   2d6c5:	83 f8 03             	cmp    $0x3,%eax
   2d6c8:	74 56                	je     2d720 <D_SetGameDescription+0xf0>
   2d6ca:	83 f8 02             	cmp    $0x2,%eax
   2d6cd:	75 ad                	jne    2d67c <D_SetGameDescription+0x4c>
   2d6cf:	48 8d 05 e1 a7 fd ff 	lea    -0x2581f(%rip),%rax        # 7eb7 <weapon_order_table-0x6c89>
   2d6d6:	48 89 02             	mov    %rax,(%rdx)
   2d6d9:	5b                   	pop    %rbx
   2d6da:	c3                   	ret
   2d6db:	0f 1f 44 00 00       	nopl   0x0(%rax,%rax,1)
   2d6e0:	48 8d 05 1b a6 fd ff 	lea    -0x259e5(%rip),%rax        # 7d02 <weapon_order_table-0x6e3e>
   2d6e7:	48 89 02             	mov    %rax,(%rdx)
   2d6ea:	5b                   	pop    %rbx
   2d6eb:	c3                   	ret
   2d6ec:	0f 1f 40 00          	nopl   0x0(%rax)
   2d6f0:	48 8d 05 fc b4 fd ff 	lea    -0x24b04(%rip),%rax        # 8bf3 <weapon_order_table-0x5f4d>
   2d6f7:	48 89 02             	mov    %rax,(%rdx)
   2d6fa:	5b                   	pop    %rbx
   2d6fb:	c3                   	ret
   2d6fc:	0f 1f 40 00          	nopl   0x0(%rax)
   2d700:	48 8d 05 db ac fd ff 	lea    -0x25325(%rip),%rax        # 83e2 <weapon_order_table-0x675e>
   2d707:	48 89 02             	mov    %rax,(%rdx)
   2d70a:	5b                   	pop    %rbx
   2d70b:	c3                   	ret
   2d70c:	0f 1f 40 00          	nopl   0x0(%rax)
   2d710:	48 8d 05 d6 c8 fd ff 	lea    -0x2372a(%rip),%rax        # 9fed <weapon_order_table-0x4b53>
   2d717:	48 89 02             	mov    %rax,(%rdx)
   2d71a:	5b                   	pop    %rbx
   2d71b:	c3                   	ret
   2d71c:	0f 1f 40 00          	nopl   0x0(%rax)
   2d720:	48 8d 05 f8 c2 fd ff 	lea    -0x23d08(%rip),%rax        # 9a1f <weapon_order_table-0x5121>
   2d727:	48 89 02             	mov    %rax,(%rdx)
   2d72a:	5b                   	pop    %rbx
   2d72b:	c3                   	ret
   2d72c:	cc                   	int3
   2d72d:	cc                   	int3
   2d72e:	cc                   	int3
   2d72f:	cc                   	int3

000000000002d730 <PrintDehackedBanners>:
   2d730:	c3                   	ret
   2d731:	cc                   	int3
   2d732:	cc                   	int3
   2d733:	cc                   	int3
   2d734:	cc                   	int3
   2d735:	cc                   	int3
   2d736:	cc                   	int3
   2d737:	cc                   	int3
   2d738:	cc                   	int3
   2d739:	cc                   	int3
   2d73a:	cc                   	int3
   2d73b:	cc                   	int3
   2d73c:	cc                   	int3
   2d73d:	cc                   	int3
   2d73e:	cc                   	int3
   2d73f:	cc                   	int3

000000000002d740 <PrintGameVersion>:
   2d740:	48 8d 05 79 d9 03 00 	lea    0x3d979(%rip),%rax        # 6b0c0 <gameversion>
   2d747:	8b 00                	mov    (%rax),%eax
   2d749:	83 f8 01             	cmp    $0x1,%eax
   2d74c:	74 30                	je     2d77e <PrintGameVersion+0x3e>
   2d74e:	83 f8 02             	cmp    $0x2,%eax
   2d751:	74 49                	je     2d79c <PrintGameVersion+0x5c>
   2d753:	83 f8 03             	cmp    $0x3,%eax
   2d756:	74 4d                	je     2d7a5 <PrintGameVersion+0x65>
   2d758:	83 f8 04             	cmp    $0x4,%eax
   2d75b:	74 51                	je     2d7ae <PrintGameVersion+0x6e>
   2d75d:	83 f8 05             	cmp    $0x5,%eax
   2d760:	74 55                	je     2d7b7 <PrintGameVersion+0x77>
   2d762:	83 f8 06             	cmp    $0x6,%eax
   2d765:	74 59                	je     2d7c0 <PrintGameVersion+0x80>
   2d767:	83 f8 07             	cmp    $0x7,%eax
   2d76a:	74 27                	je     2d793 <PrintGameVersion+0x53>
   2d76c:	83 f8 08             	cmp    $0x8,%eax
   2d76f:	74 58                	je     2d7c9 <PrintGameVersion+0x89>
   2d771:	48 8d 35 d6 a3 fd ff 	lea    -0x25c2a(%rip),%rsi        # 7b4e <weapon_order_table-0x6ff2>
   2d778:	83 f8 09             	cmp    $0x9,%eax
   2d77b:	74 08                	je     2d785 <PrintGameVersion+0x45>
   2d77d:	c3                   	ret
   2d77e:	48 8d 35 bd ad fd ff 	lea    -0x25243(%rip),%rsi        # 8542 <weapon_order_table-0x65fe>
   2d785:	48 8d 3d 74 df fd ff 	lea    -0x2208c(%rip),%rdi        # b700 <weapon_order_table-0x3440>
   2d78c:	31 c0                	xor    %eax,%eax
   2d78e:	e9 7d dc ff ff       	jmp    2b410 <printf>
   2d793:	48 8d 35 a1 c2 fd ff 	lea    -0x23d5f(%rip),%rsi        # 9a3b <weapon_order_table-0x5105>
   2d79a:	eb e9                	jmp    2d785 <PrintGameVersion+0x45>
   2d79c:	48 8d 35 71 a5 fd ff 	lea    -0x25a8f(%rip),%rsi        # 7d14 <weapon_order_table-0x6e2c>
   2d7a3:	eb e0                	jmp    2d785 <PrintGameVersion+0x45>
   2d7a5:	48 8d 35 a1 ad fd ff 	lea    -0x2525f(%rip),%rsi        # 854d <weapon_order_table-0x65f3>
   2d7ac:	eb d7                	jmp    2d785 <PrintGameVersion+0x45>
   2d7ae:	48 8d 35 e3 bd fd ff 	lea    -0x2421d(%rip),%rsi        # 9598 <weapon_order_table-0x55a8>
   2d7b5:	eb ce                	jmp    2d785 <PrintGameVersion+0x45>
   2d7b7:	48 8d 35 52 cf fd ff 	lea    -0x230ae(%rip),%rsi        # a710 <weapon_order_table-0x4430>
   2d7be:	eb c5                	jmp    2d785 <PrintGameVersion+0x45>
   2d7c0:	48 8d 35 f5 b2 fd ff 	lea    -0x24d0b(%rip),%rsi        # 8abc <weapon_order_table-0x6084>
   2d7c7:	eb bc                	jmp    2d785 <PrintGameVersion+0x45>
   2d7c9:	48 8d 35 b0 bc fd ff 	lea    -0x24350(%rip),%rsi        # 9480 <weapon_order_table-0x56c0>
   2d7d0:	eb b3                	jmp    2d785 <PrintGameVersion+0x45>
   2d7d2:	cc                   	int3
   2d7d3:	cc                   	int3
   2d7d4:	cc                   	int3
   2d7d5:	cc                   	int3
   2d7d6:	cc                   	int3
   2d7d7:	cc                   	int3
   2d7d8:	cc                   	int3
   2d7d9:	cc                   	int3
   2d7da:	cc                   	int3
   2d7db:	cc                   	int3
   2d7dc:	cc                   	int3
   2d7dd:	cc                   	int3
   2d7de:	cc                   	int3
   2d7df:	cc                   	int3

000000000002d7e0 <D_DoomMain>:
   2d7e0:	41 57                	push   %r15
   2d7e2:	31 f6                	xor    %esi,%esi
   2d7e4:	48 8d 3d d5 f0 ff ff 	lea    -0xf2b(%rip),%rdi        # 2c8c0 <D_Endoom>
   2d7eb:	41 56                	push   %r14
   2d7ed:	41 55                	push   %r13
   2d7ef:	41 54                	push   %r12
   2d7f1:	55                   	push   %rbp
   2d7f2:	53                   	push   %rbx
   2d7f3:	48 81 ec e8 01 00 00 	sub    $0x1e8,%rsp
   2d7fa:	e8 11 80 00 00       	call   35810 <I_AtExit>
   2d7ff:	48 8d 3d 9c ca fd ff 	lea    -0x23564(%rip),%rdi        # a2a2 <weapon_order_table-0x489e>
   2d806:	e8 55 80 00 00       	call   35860 <I_PrintBanner>
   2d80b:	48 8d 3d 5e d3 fd ff 	lea    -0x22ca2(%rip),%rdi        # ab70 <weapon_order_table-0x3fd0>
   2d812:	31 c0                	xor    %eax,%eax
   2d814:	e8 f7 db ff ff       	call   2b410 <printf>
   2d819:	e8 22 7b 00 00       	call   35340 <Z_Init>
   2d81e:	48 8d 3d c9 aa fd ff 	lea    -0x25537(%rip),%rdi        # 82ee <weapon_order_table-0x6852>
   2d825:	e8 16 f0 ff ff       	call   2c840 <M_CheckParm>
   2d82a:	48 8d 15 8b cd 08 01 	lea    0x108cd8b(%rip),%rdx        # 10ba5bc <nomonsters>
   2d831:	48 8d 3d 70 c6 fd ff 	lea    -0x23990(%rip),%rdi        # 9ea8 <weapon_order_table-0x4c98>
   2d838:	89 02                	mov    %eax,(%rdx)
   2d83a:	e8 01 f0 ff ff       	call   2c840 <M_CheckParm>
   2d83f:	48 8d 15 72 cd 08 01 	lea    0x108cd72(%rip),%rdx        # 10ba5b8 <respawnparm>
   2d846:	48 8d 3d 09 ad fd ff 	lea    -0x252f7(%rip),%rdi        # 8556 <weapon_order_table-0x65ea>
   2d84d:	89 02                	mov    %eax,(%rdx)
   2d84f:	e8 ec ef ff ff       	call   2c840 <M_CheckParm>
   2d854:	48 8d 15 59 cd 08 01 	lea    0x108cd59(%rip),%rdx        # 10ba5b4 <fastparm>
   2d85b:	48 8d 3d f0 cb fd ff 	lea    -0x23410(%rip),%rdi        # a452 <weapon_order_table-0x46ee>
   2d862:	89 02                	mov    %eax,(%rdx)
   2d864:	e8 d7 ef ff ff       	call   2c840 <M_CheckParm>
   2d869:	48 8d 1d 50 cd 08 01 	lea    0x108cd50(%rip),%rbx        # 10ba5c0 <devparm>
   2d870:	89 c7                	mov    %eax,%edi
   2d872:	89 03                	mov    %eax,(%rbx)
   2d874:	e8 b7 a9 00 00       	call   38230 <I_DisplayFPSDots>
   2d879:	48 8d 3d 33 ca fd ff 	lea    -0x235cd(%rip),%rdi        # a2b3 <weapon_order_table-0x488d>
   2d880:	e8 bb ef ff ff       	call   2c840 <M_CheckParm>
   2d885:	85 c0                	test   %eax,%eax
   2d887:	74 0d                	je     2d896 <D_DoomMain+0xb6>
   2d889:	48 8d 05 04 e0 08 01 	lea    0x108e004(%rip),%rax        # 10bb894 <deathmatch>
   2d890:	c7 00 01 00 00 00    	movl   $0x1,(%rax)
   2d896:	48 8d 3d be cb fd ff 	lea    -0x23442(%rip),%rdi        # a45b <weapon_order_table-0x46e5>
   2d89d:	e8 9e ef ff ff       	call   2c840 <M_CheckParm>
   2d8a2:	85 c0                	test   %eax,%eax
   2d8a4:	74 0d                	je     2d8b3 <D_DoomMain+0xd3>
   2d8a6:	48 8d 05 e7 df 08 01 	lea    0x108dfe7(%rip),%rax        # 10bb894 <deathmatch>
   2d8ad:	c7 00 02 00 00 00    	movl   $0x2,(%rax)
   2d8b3:	8b 13                	mov    (%rbx),%edx
   2d8b5:	85 d2                	test   %edx,%edx
   2d8b7:	0f 85 b3 09 00 00    	jne    2e270 <D_DoomMain+0xa90>
   2d8bd:	31 ff                	xor    %edi,%edi
   2d8bf:	e8 0c 74 00 00       	call   34cd0 <M_SetConfigDir>
   2d8c4:	48 8d 3d 30 c3 fd ff 	lea    -0x23cd0(%rip),%rdi        # 9bfb <weapon_order_table-0x4f45>
   2d8cb:	e8 70 ef ff ff       	call   2c840 <M_CheckParm>
   2d8d0:	85 c0                	test   %eax,%eax
   2d8d2:	0f 84 a1 00 00 00    	je     2d979 <D_DoomMain+0x199>
   2d8d8:	48 8d 15 89 cc 08 01 	lea    0x108cc89(%rip),%rdx        # 10ba568 <myargc>
   2d8df:	bb c8 00 00 00       	mov    $0xc8,%ebx
   2d8e4:	8b 12                	mov    (%rdx),%edx
   2d8e6:	83 ea 01             	sub    $0x1,%edx
   2d8e9:	39 c2                	cmp    %eax,%edx
   2d8eb:	0f 8f 6f 0a 00 00    	jg     2e360 <D_DoomMain+0xb80>
   2d8f1:	89 de                	mov    %ebx,%esi
   2d8f3:	48 8d 3d c5 b4 fd ff 	lea    -0x24b3b(%rip),%rdi        # 8dbf <weapon_order_table-0x5d81>
   2d8fa:	31 c0                	xor    %eax,%eax
   2d8fc:	e8 0f db ff ff       	call   2b410 <printf>
   2d901:	48 8d 15 f8 b6 03 00 	lea    0x3b6f8(%rip),%rdx        # 69000 <forwardmove>
   2d908:	8b 0a                	mov    (%rdx),%ecx
   2d90a:	0f af cb             	imul   %ebx,%ecx
   2d90d:	48 63 c1             	movslq %ecx,%rax
   2d910:	c1 f9 1f             	sar    $0x1f,%ecx
   2d913:	48 69 c0 1f 85 eb 51 	imul   $0x51eb851f,%rax,%rax
   2d91a:	48 c1 f8 25          	sar    $0x25,%rax
   2d91e:	29 c8                	sub    %ecx,%eax
   2d920:	8b 4a 04             	mov    0x4(%rdx),%ecx
   2d923:	89 02                	mov    %eax,(%rdx)
   2d925:	0f af cb             	imul   %ebx,%ecx
   2d928:	48 63 c1             	movslq %ecx,%rax
   2d92b:	c1 f9 1f             	sar    $0x1f,%ecx
   2d92e:	48 69 c0 1f 85 eb 51 	imul   $0x51eb851f,%rax,%rax
   2d935:	48 c1 f8 25          	sar    $0x25,%rax
   2d939:	29 c8                	sub    %ecx,%eax
   2d93b:	89 42 04             	mov    %eax,0x4(%rdx)
   2d93e:	48 8d 15 b3 b6 03 00 	lea    0x3b6b3(%rip),%rdx        # 68ff8 <sidemove>
   2d945:	8b 0a                	mov    (%rdx),%ecx
   2d947:	0f af cb             	imul   %ebx,%ecx
   2d94a:	0f af 5a 04          	imul   0x4(%rdx),%ebx
   2d94e:	48 63 c1             	movslq %ecx,%rax
   2d951:	c1 f9 1f             	sar    $0x1f,%ecx
   2d954:	48 69 c0 1f 85 eb 51 	imul   $0x51eb851f,%rax,%rax
   2d95b:	48 c1 f8 25          	sar    $0x25,%rax
   2d95f:	29 c8                	sub    %ecx,%eax
   2d961:	89 02                	mov    %eax,(%rdx)
   2d963:	48 63 c3             	movslq %ebx,%rax
   2d966:	c1 fb 1f             	sar    $0x1f,%ebx
   2d969:	48 69 c0 1f 85 eb 51 	imul   $0x51eb851f,%rax,%rax
   2d970:	48 c1 f8 25          	sar    $0x25,%rax
   2d974:	29 d8                	sub    %ebx,%eax
   2d976:	89 42 04             	mov    %eax,0x4(%rdx)
   2d979:	48 8d 3d c6 c0 fd ff 	lea    -0x23f3a(%rip),%rdi        # 9a46 <weapon_order_table-0x50fa>
   2d980:	31 c0                	xor    %eax,%eax
   2d982:	e8 89 da ff ff       	call   2b410 <printf>
   2d987:	e8 54 c8 00 00       	call   3a1e0 <V_Init>
   2d98c:	48 8d 3d 3d 0e fe ff 	lea    -0x1f1c3(%rip),%rdi        # e7d0 <weapon_order_table-0x370>
   2d993:	31 c0                	xor    %eax,%eax
   2d995:	e8 76 da ff ff       	call   2b410 <printf>
   2d99a:	48 8d 35 74 cd fd ff 	lea    -0x2328c(%rip),%rsi        # a715 <weapon_order_table-0x442b>
   2d9a1:	48 8d 3d b9 c0 fd ff 	lea    -0x23f47(%rip),%rdi        # 9a61 <weapon_order_table-0x50df>
   2d9a8:	e8 43 71 00 00       	call   34af0 <M_SetConfigFilenames>
   2d9ad:	e8 ce ef ff ff       	call   2c980 <D_BindVariables>
   2d9b2:	48 8d 3d 8f d7 fd ff 	lea    -0x22871(%rip),%rdi        # b148 <weapon_order_table-0x39f8>
   2d9b9:	31 c0                	xor    %eax,%eax
   2d9bb:	e8 50 da ff ff       	call   2b410 <printf>
   2d9c0:	e8 4b 71 00 00       	call   34b10 <M_LoadDefaults>
   2d9c5:	48 8d 3d 34 71 00 00 	lea    0x7134(%rip),%rdi        # 34b00 <M_SaveDefaults>
   2d9cc:	31 f6                	xor    %esi,%esi
   2d9ce:	e8 3d 7e 00 00       	call   35810 <I_AtExit>
   2d9d3:	48 8d 35 66 3c 0a 01 	lea    0x10a3c66(%rip),%rsi        # 10d1640 <gamemission>
   2d9da:	bf 3f 00 00 00       	mov    $0x3f,%edi
   2d9df:	e8 cc ab 00 00       	call   385b0 <D_FindIWAD>
   2d9e4:	48 8d 1d dd cb 08 01 	lea    0x108cbdd(%rip),%rbx        # 10ba5c8 <iwadfile>
   2d9eb:	48 89 03             	mov    %rax,(%rbx)
   2d9ee:	48 85 c0             	test   %rax,%rax
   2d9f1:	0f 84 b9 09 00 00    	je     2e3b0 <D_DoomMain+0xbd0>
   2d9f7:	4c 8d 35 32 3c 0a 01 	lea    0x10a3c32(%rip),%r14        # 10d1630 <modifiedgame>
   2d9fe:	48 8d 3d 9c b5 fd ff 	lea    -0x24a64(%rip),%rdi        # 8fa1 <weapon_order_table-0x5b9f>
   2da05:	31 c0                	xor    %eax,%eax
   2da07:	41 c7 06 00 00 00 00 	movl   $0x0,(%r14)
   2da0e:	e8 fd d9 ff ff       	call   2b410 <printf>
   2da13:	48 8b 1b             	mov    (%rbx),%rbx
   2da16:	48 8d 3d 3c a1 fd ff 	lea    -0x25ec4(%rip),%rdi        # 7b59 <weapon_order_table-0x6fe7>
   2da1d:	31 c0                	xor    %eax,%eax
   2da1f:	48 89 de             	mov    %rbx,%rsi
   2da22:	e8 e9 d9 ff ff       	call   2b410 <printf>
   2da27:	48 89 df             	mov    %rbx,%rdi
   2da2a:	e8 41 95 00 00       	call   36f70 <W_AddFile>
   2da2f:	31 ff                	xor    %edi,%edi
   2da31:	e8 ba 9c 00 00       	call   376f0 <W_CheckCorrectIWAD>
   2da36:	e8 c5 f9 ff ff       	call   2d400 <D_IdentifyVersion>
   2da3b:	be 01 00 00 00       	mov    $0x1,%esi
   2da40:	48 8d 3d 00 bd fd ff 	lea    -0x24300(%rip),%rdi        # 9747 <weapon_order_table-0x53f9>
   2da47:	e8 74 ed ff ff       	call   2c7c0 <M_CheckParmWithArgs>
   2da4c:	85 c0                	test   %eax,%eax
   2da4e:	0f 84 7c 06 00 00    	je     2e0d0 <D_DoomMain+0x8f0>
   2da54:	48 98                	cltq
   2da56:	4c 8d 2d c3 94 03 00 	lea    0x394c3(%rip),%r13        # 66f20 <gameversions>
   2da5d:	48 8d 2d fc ca 08 01 	lea    0x108cafc(%rip),%rbp        # 10ba560 <myargv>
   2da64:	31 db                	xor    %ebx,%ebx
   2da66:	48 83 c0 01          	add    $0x1,%rax
   2da6a:	4d 89 ef             	mov    %r13,%r15
   2da6d:	48 89 44 24 08       	mov    %rax,0x8(%rsp)
   2da72:	4c 8d 24 c5 00 00 00 	lea    0x0(,%rax,8),%r12
   2da79:	00 
   2da7a:	eb 15                	jmp    2da91 <D_DoomMain+0x2b1>
   2da7c:	0f 1f 40 00          	nopl   0x0(%rax)
   2da80:	49 83 c7 18          	add    $0x18,%r15
   2da84:	83 c3 01             	add    $0x1,%ebx
   2da87:	49 83 3f 00          	cmpq   $0x0,(%r15)
   2da8b:	0f 84 f7 07 00 00    	je     2e288 <D_DoomMain+0xaa8>
   2da91:	48 8b 45 00          	mov    0x0(%rbp),%rax
   2da95:	49 8b 77 08          	mov    0x8(%r15),%rsi
   2da99:	4a 8b 3c 20          	mov    (%rax,%r12,1),%rdi
   2da9d:	e8 8e dd ff ff       	call   2b830 <strcmp>
   2daa2:	85 c0                	test   %eax,%eax
   2daa4:	75 da                	jne    2da80 <D_DoomMain+0x2a0>
   2daa6:	48 63 db             	movslq %ebx,%rbx
   2daa9:	48 8d 0d 70 94 03 00 	lea    0x39470(%rip),%rcx        # 66f20 <gameversions>
   2dab0:	48 8d 15 09 d6 03 00 	lea    0x3d609(%rip),%rdx        # 6b0c0 <gameversion>
   2dab7:	48 8d 04 5b          	lea    (%rbx,%rbx,2),%rax
   2dabb:	8b 44 c1 10          	mov    0x10(%rcx,%rax,8),%eax
   2dabf:	89 02                	mov    %eax,(%rdx)
   2dac1:	4c 8d 25 fc d5 03 00 	lea    0x3d5fc(%rip),%r12        # 6b0c4 <gamemode>
   2dac8:	83 f8 05             	cmp    $0x5,%eax
   2dacb:	0f 87 5f 06 00 00    	ja     2e130 <D_DoomMain+0x950>
   2dad1:	41 8b 04 24          	mov    (%r12),%eax
   2dad5:	83 f8 03             	cmp    $0x3,%eax
   2dad8:	0f 84 32 09 00 00    	je     2e410 <D_DoomMain+0xc30>
   2dade:	83 f8 02             	cmp    $0x2,%eax
   2dae1:	75 2d                	jne    2db10 <D_DoomMain+0x330>
   2dae3:	48 8d 05 56 3b 0a 01 	lea    0x10a3b56(%rip),%rax        # 10d1640 <gamemission>
   2daea:	8b 00                	mov    (%rax),%eax
   2daec:	89 44 24 08          	mov    %eax,0x8(%rsp)
   2daf0:	83 e8 02             	sub    $0x2,%eax
   2daf3:	83 f8 01             	cmp    $0x1,%eax
   2daf6:	77 18                	ja     2db10 <D_DoomMain+0x330>
   2daf8:	48 8d 05 41 3b 0a 01 	lea    0x10a3b41(%rip),%rax        # 10d1640 <gamemission>
   2daff:	c7 00 01 00 00 00    	movl   $0x1,(%rax)
   2db05:	66 66 2e 0f 1f 84 00 	data16 cs nopw 0x0(%rax,%rax,1)
   2db0c:	00 00 00 00 
   2db10:	48 8d 3d 0b a2 fd ff 	lea    -0x25df5(%rip),%rdi        # 7d22 <weapon_order_table-0x6e1e>
   2db17:	e8 44 97 00 00       	call   37260 <W_CheckNumForName>
   2db1c:	85 c0                	test   %eax,%eax
   2db1e:	78 1b                	js     2db3b <D_DoomMain+0x35b>
   2db20:	48 8d 3d 11 de fd ff 	lea    -0x221ef(%rip),%rdi        # b938 <weapon_order_table-0x3208>
   2db27:	31 c0                	xor    %eax,%eax
   2db29:	e8 e2 d8 ff ff       	call   2b410 <printf>
   2db2e:	48 8d 05 5f ca 08 01 	lea    0x108ca5f(%rip),%rax        # 10ba594 <bfgedition>
   2db35:	c7 00 01 00 00 00    	movl   $0x1,(%rax)
   2db3b:	e8 20 3a 03 00       	call   61560 <W_ParseCommandLine>
   2db40:	be 01 00 00 00       	mov    $0x1,%esi
   2db45:	48 8d 3d 19 c9 fd ff 	lea    -0x236e7(%rip),%rdi        # a465 <weapon_order_table-0x46db>
   2db4c:	41 89 06             	mov    %eax,(%r14)
   2db4f:	e8 6c ec ff ff       	call   2c7c0 <M_CheckParmWithArgs>
   2db54:	85 c0                	test   %eax,%eax
   2db56:	75 19                	jne    2db71 <D_DoomMain+0x391>
   2db58:	be 01 00 00 00       	mov    $0x1,%esi
   2db5d:	48 8d 3d 0a bc fd ff 	lea    -0x243f6(%rip),%rdi        # 976e <weapon_order_table-0x53d2>
   2db64:	e8 57 ec ff ff       	call   2c7c0 <M_CheckParmWithArgs>
   2db69:	85 c0                	test   %eax,%eax
   2db6b:	0f 84 a9 00 00 00    	je     2dc1a <D_DoomMain+0x43a>
   2db71:	48 8d 2d e8 c9 08 01 	lea    0x108c9e8(%rip),%rbp        # 10ba560 <myargv>
   2db78:	48 98                	cltq
   2db7a:	48 8d 35 51 b2 fd ff 	lea    -0x24daf(%rip),%rsi        # 8dd2 <weapon_order_table-0x5d6e>
   2db81:	4c 8d ac 24 e0 00 00 	lea    0xe0(%rsp),%r13
   2db88:	00 
   2db89:	48 8d 58 01          	lea    0x1(%rax),%rbx
   2db8d:	48 8b 45 00          	mov    0x0(%rbp),%rax
   2db91:	48 8b 3c d8          	mov    (%rax,%rbx,8),%rdi
   2db95:	e8 c6 74 00 00       	call   35060 <M_StringEndsWith>
   2db9a:	48 8b 55 00          	mov    0x0(%rbp),%rdx
   2db9e:	48 8b 0c da          	mov    (%rdx,%rbx,8),%rcx
   2dba2:	85 c0                	test   %eax,%eax
   2dba4:	0f 84 ee 05 00 00    	je     2e198 <D_DoomMain+0x9b8>
   2dbaa:	ba 00 01 00 00       	mov    $0x100,%edx
   2dbaf:	48 89 ce             	mov    %rcx,%rsi
   2dbb2:	4c 89 ef             	mov    %r13,%rdi
   2dbb5:	e8 16 74 00 00       	call   34fd0 <M_StringCopy>
   2dbba:	48 8d 3d 98 9f fd ff 	lea    -0x26068(%rip),%rdi        # 7b59 <weapon_order_table-0x6fe7>
   2dbc1:	31 c0                	xor    %eax,%eax
   2dbc3:	4c 89 ee             	mov    %r13,%rsi
   2dbc6:	e8 45 d8 ff ff       	call   2b410 <printf>
   2dbcb:	4c 89 ef             	mov    %r13,%rdi
   2dbce:	e8 9d 93 00 00       	call   36f70 <W_AddFile>
   2dbd3:	48 85 c0             	test   %rax,%rax
   2dbd6:	0f 84 0c 07 00 00    	je     2e2e8 <D_DoomMain+0xb08>
   2dbdc:	48 8d 05 25 e6 08 01 	lea    0x108e625(%rip),%rax        # 10bc208 <numlumps>
   2dbe3:	48 8d 7c 24 17       	lea    0x17(%rsp),%rdi
   2dbe8:	8b 00                	mov    (%rax),%eax
   2dbea:	83 e8 01             	sub    $0x1,%eax
   2dbed:	48 8d 14 80          	lea    (%rax,%rax,4),%rdx
   2dbf1:	48 8d 05 18 e6 08 01 	lea    0x108e618(%rip),%rax        # 10bc210 <lumpinfo>
   2dbf8:	48 8b 00             	mov    (%rax),%rax
   2dbfb:	48 8d 34 d0          	lea    (%rax,%rdx,8),%rsi
   2dbff:	ba 09 00 00 00       	mov    $0x9,%edx
   2dc04:	e8 c7 73 00 00       	call   34fd0 <M_StringCopy>
   2dc09:	4c 89 ee             	mov    %r13,%rsi
   2dc0c:	48 8d 3d 2b c1 fd ff 	lea    -0x23ed5(%rip),%rdi        # 9d3e <weapon_order_table-0x4e02>
   2dc13:	31 c0                	xor    %eax,%eax
   2dc15:	e8 f6 d7 ff ff       	call   2b410 <printf>
   2dc1a:	48 8d 3d 4f 5d 00 00 	lea    0x5d4f(%rip),%rdi        # 33970 <G_CheckDemoStatus>
   2dc21:	be 01 00 00 00       	mov    $0x1,%esi
   2dc26:	e8 e5 7b 00 00       	call   35810 <I_AtExit>
   2dc2b:	e8 f0 99 00 00       	call   37620 <W_GenerateHashTable>
   2dc30:	e8 fb f9 ff ff       	call   2d630 <D_SetGameDescription>
   2dc35:	48 8d 05 04 3a 0a 01 	lea    0x10a3a04(%rip),%rax        # 10d1640 <gamemission>
   2dc3c:	8b 38                	mov    (%rax),%edi
   2dc3e:	e8 bd ad 00 00       	call   38a00 <D_SaveGameIWADName>
   2dc43:	48 89 c7             	mov    %rax,%rdi
   2dc46:	e8 f5 70 00 00       	call   34d40 <M_GetSaveGameDir>
   2dc4b:	48 8d 15 7e c9 08 01 	lea    0x108c97e(%rip),%rdx        # 10ba5d0 <savegamedir>
   2dc52:	48 89 02             	mov    %rax,(%rdx)
   2dc55:	41 8b 06             	mov    (%r14),%eax
   2dc58:	85 c0                	test   %eax,%eax
   2dc5a:	0f 84 c5 00 00 00    	je     2dd25 <D_DoomMain+0x545>
   2dc60:	66 0f 6f 05 88 0e fe 	movdqa -0x1f178(%rip),%xmm0        # eaf0 <weapon_order_table-0x50>
   2dc67:	ff 
   2dc68:	48 b8 73 70 69 64 61 	movabs $0x3164316164697073,%rax
   2dc6f:	31 64 31 
   2dc72:	48 89 84 24 d0 00 00 	mov    %rax,0xd0(%rsp)
   2dc79:	00 
   2dc7a:	41 8b 04 24          	mov    (%r12),%eax
   2dc7e:	0f 29 44 24 20       	movaps %xmm0,0x20(%rsp)
   2dc83:	66 0f 6f 05 e5 0d fe 	movdqa -0x1f21b(%rip),%xmm0        # ea70 <weapon_order_table-0xd0>
   2dc8a:	ff 
   2dc8b:	0f 29 44 24 30       	movaps %xmm0,0x30(%rsp)
   2dc90:	66 0f 6f 05 e8 0d fe 	movdqa -0x1f218(%rip),%xmm0        # ea80 <weapon_order_table-0xc0>
   2dc97:	ff 
   2dc98:	0f 29 44 24 40       	movaps %xmm0,0x40(%rsp)
   2dc9d:	66 0f 6f 05 ab 0d fe 	movdqa -0x1f255(%rip),%xmm0        # ea50 <weapon_order_table-0xf0>
   2dca4:	ff 
   2dca5:	0f 29 44 24 50       	movaps %xmm0,0x50(%rsp)
   2dcaa:	66 0f 6f 05 2e 0e fe 	movdqa -0x1f1d2(%rip),%xmm0        # eae0 <weapon_order_table-0x60>
   2dcb1:	ff 
   2dcb2:	0f 29 44 24 60       	movaps %xmm0,0x60(%rsp)
   2dcb7:	66 0f 6f 05 d1 0d fe 	movdqa -0x1f22f(%rip),%xmm0        # ea90 <weapon_order_table-0xb0>
   2dcbe:	ff 
   2dcbf:	0f 29 44 24 70       	movaps %xmm0,0x70(%rsp)
   2dcc4:	66 0f 6f 05 24 0d fe 	movdqa -0x1f2dc(%rip),%xmm0        # e9f0 <weapon_order_table-0x150>
   2dccb:	ff 
   2dccc:	0f 29 84 24 80 00 00 	movaps %xmm0,0x80(%rsp)
   2dcd3:	00 
   2dcd4:	66 0f 6f 05 d4 0d fe 	movdqa -0x1f22c(%rip),%xmm0        # eab0 <weapon_order_table-0x90>
   2dcdb:	ff 
   2dcdc:	0f 29 84 24 90 00 00 	movaps %xmm0,0x90(%rsp)
   2dce3:	00 
   2dce4:	66 0f 6f 05 54 0d fe 	movdqa -0x1f2ac(%rip),%xmm0        # ea40 <weapon_order_table-0x100>
   2dceb:	ff 
   2dcec:	0f 29 84 24 a0 00 00 	movaps %xmm0,0xa0(%rsp)
   2dcf3:	00 
   2dcf4:	66 0f 6f 05 c4 0d fe 	movdqa -0x1f23c(%rip),%xmm0        # eac0 <weapon_order_table-0x80>
   2dcfb:	ff 
   2dcfc:	0f 29 84 24 b0 00 00 	movaps %xmm0,0xb0(%rsp)
   2dd03:	00 
   2dd04:	66 0f 6f 05 94 0d fe 	movdqa -0x1f26c(%rip),%xmm0        # eaa0 <weapon_order_table-0xa0>
   2dd0b:	ff 
   2dd0c:	0f 29 84 24 c0 00 00 	movaps %xmm0,0xc0(%rsp)
   2dd13:	00 
   2dd14:	85 c0                	test   %eax,%eax
   2dd16:	0f 84 04 07 00 00    	je     2e420 <D_DoomMain+0xc40>
   2dd1c:	83 f8 01             	cmp    $0x1,%eax
   2dd1f:	0f 84 a3 06 00 00    	je     2e3c8 <D_DoomMain+0xbe8>
   2dd25:	48 8d 3d 4c ba fd ff 	lea    -0x245b4(%rip),%rdi        # 9778 <weapon_order_table-0x53c8>
   2dd2c:	e8 2f 95 00 00       	call   37260 <W_CheckNumForName>
   2dd31:	85 c0                	test   %eax,%eax
   2dd33:	0f 88 3f 04 00 00    	js     2e178 <D_DoomMain+0x998>
   2dd39:	e8 62 7b 00 00       	call   358a0 <I_PrintDivider>
   2dd3e:	48 8d 3d 23 dc fd ff 	lea    -0x223dd(%rip),%rdi        # b968 <weapon_order_table-0x31d8>
   2dd45:	31 c0                	xor    %eax,%eax
   2dd47:	e8 c4 d6 ff ff       	call   2b410 <printf>
   2dd4c:	48 8d 05 e5 38 0a 01 	lea    0x10a38e5(%rip),%rax        # 10d1638 <gamedescription>
   2dd53:	48 8b 38             	mov    (%rax),%rdi
   2dd56:	e8 75 7b 00 00       	call   358d0 <I_PrintStartupBanner>
   2dd5b:	e8 d0 f9 ff ff       	call   2d730 <PrintDehackedBanners>
   2dd60:	48 8d 3d 38 c1 fd ff 	lea    -0x23ec8(%rip),%rdi        # 9e9f <weapon_order_table-0x4ca1>
   2dd67:	e8 f4 94 00 00       	call   37260 <W_CheckNumForName>
   2dd6c:	85 c0                	test   %eax,%eax
   2dd6e:	0f 89 d4 03 00 00    	jns    2e148 <D_DoomMain+0x968>
   2dd74:	48 8d 3d 15 e3 fd ff 	lea    -0x21ceb(%rip),%rdi        # c090 <weapon_order_table-0x2ab0>
   2dd7b:	31 c0                	xor    %eax,%eax
   2dd7d:	e8 8e d6 ff ff       	call   2b410 <printf>
   2dd82:	e8 b9 a4 00 00       	call   38240 <I_CheckIsScreensaver>
   2dd87:	e8 24 48 02 00       	call   525b0 <I_InitTimer>
   2dd8c:	e8 8f 7e 03 00       	call   65c20 <I_InitJoystick>
   2dd91:	bf 01 00 00 00       	mov    $0x1,%edi
   2dd96:	e8 75 8e 01 00       	call   46c10 <I_InitSound>
   2dd9b:	e8 30 90 01 00       	call   46dd0 <I_InitMusic>
   2dda0:	e8 eb 3b 03 00       	call   61990 <D_ConnectNetGame>
   2dda5:	4c 8d 35 04 c8 08 01 	lea    0x108c804(%rip),%r14        # 10ba5b0 <startskill>
   2ddac:	4c 8d 2d f9 c7 08 01 	lea    0x108c7f9(%rip),%r13        # 10ba5ac <startepisode>
   2ddb3:	be 01 00 00 00       	mov    $0x1,%esi
   2ddb8:	48 8d 2d e9 c7 08 01 	lea    0x108c7e9(%rip),%rbp        # 10ba5a8 <startmap>
   2ddbf:	48 8d 1d de c7 08 01 	lea    0x108c7de(%rip),%rbx        # 10ba5a4 <autostart>
   2ddc6:	48 8d 3d 35 be fd ff 	lea    -0x241cb(%rip),%rdi        # 9c02 <weapon_order_table-0x4f3e>
   2ddcd:	41 c7 06 02 00 00 00 	movl   $0x2,(%r14)
   2ddd4:	41 c7 45 00 01 00 00 	movl   $0x1,0x0(%r13)
   2dddb:	00 
   2dddc:	c7 45 00 01 00 00 00 	movl   $0x1,0x0(%rbp)
   2dde3:	c7 03 00 00 00 00    	movl   $0x0,(%rbx)
   2dde9:	e8 d2 e9 ff ff       	call   2c7c0 <M_CheckParmWithArgs>
   2ddee:	85 c0                	test   %eax,%eax
   2ddf0:	74 20                	je     2de12 <D_DoomMain+0x632>
   2ddf2:	48 8d 15 67 c7 08 01 	lea    0x108c767(%rip),%rdx        # 10ba560 <myargv>
   2ddf9:	48 98                	cltq
   2ddfb:	48 8b 12             	mov    (%rdx),%rdx
   2ddfe:	48 8b 44 c2 08       	mov    0x8(%rdx,%rax,8),%rax
   2de03:	0f be 00             	movsbl (%rax),%eax
   2de06:	c7 03 01 00 00 00    	movl   $0x1,(%rbx)
   2de0c:	83 e8 31             	sub    $0x31,%eax
   2de0f:	41 89 06             	mov    %eax,(%r14)
   2de12:	be 01 00 00 00       	mov    $0x1,%esi
   2de17:	48 8d 3d f7 aa fd ff 	lea    -0x25509(%rip),%rdi        # 8915 <weapon_order_table-0x622b>
   2de1e:	e8 9d e9 ff ff       	call   2c7c0 <M_CheckParmWithArgs>
   2de23:	85 c0                	test   %eax,%eax
   2de25:	74 28                	je     2de4f <D_DoomMain+0x66f>
   2de27:	48 8d 15 32 c7 08 01 	lea    0x108c732(%rip),%rdx        # 10ba560 <myargv>
   2de2e:	48 98                	cltq
   2de30:	48 8b 12             	mov    (%rdx),%rdx
   2de33:	48 8b 44 c2 08       	mov    0x8(%rdx,%rax,8),%rax
   2de38:	0f be 00             	movsbl (%rax),%eax
   2de3b:	c7 45 00 01 00 00 00 	movl   $0x1,0x0(%rbp)
   2de42:	c7 03 01 00 00 00    	movl   $0x1,(%rbx)
   2de48:	83 e8 30             	sub    $0x30,%eax
   2de4b:	41 89 45 00          	mov    %eax,0x0(%r13)
   2de4f:	4c 8d 3d 62 da 08 01 	lea    0x108da62(%rip),%r15        # 10bb8b8 <timelimit>
   2de56:	be 01 00 00 00       	mov    $0x1,%esi
   2de5b:	48 8d 3d 69 c0 fd ff 	lea    -0x23f97(%rip),%rdi        # 9ecb <weapon_order_table-0x4c75>
   2de62:	41 c7 07 00 00 00 00 	movl   $0x0,(%r15)
   2de69:	e8 52 e9 ff ff       	call   2c7c0 <M_CheckParmWithArgs>
   2de6e:	85 c0                	test   %eax,%eax
   2de70:	0f 85 da 03 00 00    	jne    2e250 <D_DoomMain+0xa70>
   2de76:	48 8d 3d 8a a1 fd ff 	lea    -0x25e76(%rip),%rdi        # 8007 <weapon_order_table-0x6b39>
   2de7d:	e8 be e9 ff ff       	call   2c840 <M_CheckParm>
   2de82:	85 c0                	test   %eax,%eax
   2de84:	74 07                	je     2de8d <D_DoomMain+0x6ad>
   2de86:	41 c7 07 14 00 00 00 	movl   $0x14,(%r15)
   2de8d:	be 01 00 00 00       	mov    $0x1,%esi
   2de92:	48 8d 3d 92 9e fd ff 	lea    -0x2616e(%rip),%rdi        # 7d2b <weapon_order_table-0x6e15>
   2de99:	e8 22 e9 ff ff       	call   2c7c0 <M_CheckParmWithArgs>
   2de9e:	85 c0                	test   %eax,%eax
   2dea0:	74 4a                	je     2deec <D_DoomMain+0x70c>
   2dea2:	48 8d 15 b7 c6 08 01 	lea    0x108c6b7(%rip),%rdx        # 10ba560 <myargv>
   2dea9:	48 8b 32             	mov    (%rdx),%rsi
   2deac:	48 63 d0             	movslq %eax,%rdx
   2deaf:	48 83 c2 01          	add    $0x1,%rdx
   2deb3:	48 8b 3c d6          	mov    (%rsi,%rdx,8),%rdi
   2deb7:	41 83 3c 24 02       	cmpl   $0x2,(%r12)
   2debc:	0f 84 a6 05 00 00    	je     2e468 <D_DoomMain+0xc88>
   2dec2:	0f be 0f             	movsbl (%rdi),%ecx
   2dec5:	48 8d 3d 9c c6 08 01 	lea    0x108c69c(%rip),%rdi        # 10ba568 <myargc>
   2decc:	83 c0 02             	add    $0x2,%eax
   2decf:	83 e9 30             	sub    $0x30,%ecx
   2ded2:	41 89 4d 00          	mov    %ecx,0x0(%r13)
   2ded6:	b9 01 00 00 00       	mov    $0x1,%ecx
   2dedb:	3b 07                	cmp    (%rdi),%eax
   2dedd:	0f 8c 4d 04 00 00    	jl     2e330 <D_DoomMain+0xb50>
   2dee3:	89 4d 00             	mov    %ecx,0x0(%rbp)
   2dee6:	c7 03 01 00 00 00    	movl   $0x1,(%rbx)
   2deec:	48 8d 3d e8 bc fd ff 	lea    -0x24318(%rip),%rdi        # 9bdb <weapon_order_table-0x4f65>
   2def3:	e8 48 e9 ff ff       	call   2c840 <M_CheckParm>
   2def8:	85 c0                	test   %eax,%eax
   2defa:	7e 22                	jle    2df1e <D_DoomMain+0x73e>
   2defc:	48 8d 05 e9 d3 08 01 	lea    0x108d3e9(%rip),%rax        # 10bb2ec <testcontrols>
   2df03:	41 c7 45 00 01 00 00 	movl   $0x1,0x0(%r13)
   2df0a:	00 
   2df0b:	c7 45 00 01 00 00 00 	movl   $0x1,0x0(%rbp)
   2df12:	c7 03 01 00 00 00    	movl   $0x1,(%rbx)
   2df18:	c7 00 01 00 00 00    	movl   $0x1,(%rax)
   2df1e:	be 01 00 00 00       	mov    $0x1,%esi
   2df23:	48 8d 3d a8 bf fd ff 	lea    -0x24058(%rip),%rdi        # 9ed2 <weapon_order_table-0x4c6e>
   2df2a:	e8 91 e8 ff ff       	call   2c7c0 <M_CheckParmWithArgs>
   2df2f:	48 63 d0             	movslq %eax,%rdx
   2df32:	b8 ff ff ff ff       	mov    $0xffffffff,%eax
   2df37:	85 d2                	test   %edx,%edx
   2df39:	0f 85 f1 02 00 00    	jne    2e230 <D_DoomMain+0xa50>
   2df3f:	4c 8d 3d 5a c6 08 01 	lea    0x108c65a(%rip),%r15        # 10ba5a0 <startloadgame>
   2df46:	48 8d 3d bb e1 fd ff 	lea    -0x21e45(%rip),%rdi        # c108 <weapon_order_table-0x2a38>
   2df4d:	41 89 07             	mov    %eax,(%r15)
   2df50:	31 c0                	xor    %eax,%eax
   2df52:	e8 b9 d4 ff ff       	call   2b410 <printf>
   2df57:	e8 84 27 00 00       	call   306e0 <M_Init>
   2df5c:	48 8d 3d 15 d2 fd ff 	lea    -0x22deb(%rip),%rdi        # b178 <weapon_order_table-0x39c8>
   2df63:	31 c0                	xor    %eax,%eax
   2df65:	e8 a6 d4 ff ff       	call   2b410 <printf>
   2df6a:	e8 e1 e3 00 00       	call   3c350 <R_Init>
   2df6f:	48 8d 3d 12 e4 fd ff 	lea    -0x21bee(%rip),%rdi        # c388 <weapon_order_table-0x27b8>
   2df76:	31 c0                	xor    %eax,%eax
   2df78:	e8 93 d4 ff ff       	call   2b410 <printf>
   2df7d:	e8 9e 15 01 00       	call   3f520 <P_Init>
   2df82:	48 8d 3d 55 ae fd ff 	lea    -0x251ab(%rip),%rdi        # 8dde <weapon_order_table-0x5d62>
   2df89:	31 c0                	xor    %eax,%eax
   2df8b:	e8 80 d4 ff ff       	call   2b410 <printf>
   2df90:	48 8d 05 85 a1 04 00 	lea    0x4a185(%rip),%rax        # 7811c <musicVolume>
   2df97:	8b 30                	mov    (%rax),%esi
   2df99:	48 8d 05 80 a1 04 00 	lea    0x4a180(%rip),%rax        # 78120 <sfxVolume>
   2dfa0:	8b 38                	mov    (%rax),%edi
   2dfa2:	c1 e6 03             	shl    $0x3,%esi
   2dfa5:	c1 e7 03             	shl    $0x3,%edi
   2dfa8:	e8 f3 88 01 00       	call   468a0 <S_Init>
   2dfad:	48 8d 3d fc d4 fd ff 	lea    -0x22b04(%rip),%rdi        # b4b0 <weapon_order_table-0x3690>
   2dfb4:	31 c0                	xor    %eax,%eax
   2dfb6:	e8 55 d4 ff ff       	call   2b410 <printf>
   2dfbb:	e8 d0 3a 03 00       	call   61a90 <D_CheckNetGame>
   2dfc0:	e8 7b f7 ff ff       	call   2d740 <PrintGameVersion>
   2dfc5:	48 8d 3d ec e0 fd ff 	lea    -0x21f14(%rip),%rdi        # c0b8 <weapon_order_table-0x2a88>
   2dfcc:	31 c0                	xor    %eax,%eax
   2dfce:	e8 3d d4 ff ff       	call   2b410 <printf>
   2dfd3:	e8 48 7f 00 00       	call   35f20 <HU_Init>
   2dfd8:	48 8d 3d f1 a6 fd ff 	lea    -0x2590f(%rip),%rdi        # 86d0 <weapon_order_table-0x6470>
   2dfdf:	31 c0                	xor    %eax,%eax
   2dfe1:	e8 2a d4 ff ff       	call   2b410 <printf>
   2dfe6:	e8 25 5e 02 00       	call   53e10 <ST_Init>
   2dfeb:	41 83 3c 24 02       	cmpl   $0x2,(%r12)
   2dff0:	0f 84 12 03 00 00    	je     2e308 <D_DoomMain+0xb28>
   2dff6:	be 01 00 00 00       	mov    $0x1,%esi
   2dffb:	48 8d 3d 6d c4 fd ff 	lea    -0x23b93(%rip),%rdi        # a46f <weapon_order_table-0x46d1>
   2e002:	e8 b9 e7 ff ff       	call   2c7c0 <M_CheckParmWithArgs>
   2e007:	85 c0                	test   %eax,%eax
   2e009:	0f 85 f9 01 00 00    	jne    2e208 <D_DoomMain+0xa28>
   2e00f:	be 01 00 00 00       	mov    $0x1,%esi
   2e014:	48 8d 3d b4 9e fd ff 	lea    -0x2614c(%rip),%rdi        # 7ecf <weapon_order_table-0x6c71>
   2e01b:	e8 a0 e7 ff ff       	call   2c7c0 <M_CheckParmWithArgs>
   2e020:	85 c0                	test   %eax,%eax
   2e022:	0f 85 b8 01 00 00    	jne    2e1e0 <D_DoomMain+0xa00>
   2e028:	be 01 00 00 00       	mov    $0x1,%esi
   2e02d:	48 8d 3d 31 c4 fd ff 	lea    -0x23bcf(%rip),%rdi        # a465 <weapon_order_table-0x46db>
   2e034:	e8 87 e7 ff ff       	call   2c7c0 <M_CheckParmWithArgs>
   2e039:	85 c0                	test   %eax,%eax
   2e03b:	0f 85 77 01 00 00    	jne    2e1b8 <D_DoomMain+0x9d8>
   2e041:	be 01 00 00 00       	mov    $0x1,%esi
   2e046:	48 8d 3d 21 b7 fd ff 	lea    -0x248df(%rip),%rdi        # 976e <weapon_order_table-0x53d2>
   2e04d:	e8 6e e7 ff ff       	call   2c7c0 <M_CheckParmWithArgs>
   2e052:	85 c0                	test   %eax,%eax
   2e054:	0f 85 de 03 00 00    	jne    2e438 <D_DoomMain+0xc58>
   2e05a:	41 8b 3f             	mov    (%r15),%edi
   2e05d:	85 ff                	test   %edi,%edi
   2e05f:	78 27                	js     2e088 <D_DoomMain+0x8a8>
   2e061:	e8 6a c8 02 00       	call   5a8d0 <P_SaveGameFile>
   2e066:	48 8d bc 24 e0 00 00 	lea    0xe0(%rsp),%rdi
   2e06d:	00 
   2e06e:	ba 00 01 00 00       	mov    $0x100,%edx
   2e073:	48 89 c6             	mov    %rax,%rsi
   2e076:	e8 55 6f 00 00       	call   34fd0 <M_StringCopy>
   2e07b:	48 8d bc 24 e0 00 00 	lea    0xe0(%rsp),%rdi
   2e082:	00 
   2e083:	e8 08 4b 00 00       	call   32b90 <G_LoadGame>
   2e088:	48 8d 05 41 d8 08 01 	lea    0x108d841(%rip),%rax        # 10bb8d0 <gameaction>
   2e08f:	83 38 03             	cmpl   $0x3,(%rax)
   2e092:	74 20                	je     2e0b4 <D_DoomMain+0x8d4>
   2e094:	48 8d 15 f5 d7 08 01 	lea    0x108d7f5(%rip),%rdx        # 10bb890 <netgame>
   2e09b:	8b 03                	mov    (%rbx),%eax
   2e09d:	0b 02                	or     (%rdx),%eax
   2e09f:	0f 84 d3 03 00 00    	je     2e478 <D_DoomMain+0xc98>
   2e0a5:	8b 55 00             	mov    0x0(%rbp),%edx
   2e0a8:	41 8b 75 00          	mov    0x0(%r13),%esi
   2e0ac:	41 8b 3e             	mov    (%r14),%edi
   2e0af:	e8 5c 4d 00 00       	call   32e10 <G_InitNew>
   2e0b4:	e8 57 ef ff ff       	call   2d010 <D_DoomLoop>
   2e0b9:	48 81 c4 e8 01 00 00 	add    $0x1e8,%rsp
   2e0c0:	5b                   	pop    %rbx
   2e0c1:	5d                   	pop    %rbp
   2e0c2:	41 5c                	pop    %r12
   2e0c4:	41 5d                	pop    %r13
   2e0c6:	41 5e                	pop    %r14
   2e0c8:	41 5f                	pop    %r15
   2e0ca:	c3                   	ret
   2e0cb:	0f 1f 44 00 00       	nopl   0x0(%rax,%rax,1)
   2e0d0:	48 8d 05 69 35 0a 01 	lea    0x10a3569(%rip),%rax        # 10d1640 <gamemission>
   2e0d7:	8b 10                	mov    (%rax),%edx
   2e0d9:	83 fa 04             	cmp    $0x4,%edx
   2e0dc:	0f 84 5e 02 00 00    	je     2e340 <D_DoomMain+0xb60>
   2e0e2:	4c 8d 25 db cf 03 00 	lea    0x3cfdb(%rip),%r12        # 6b0c4 <gamemode>
   2e0e9:	41 8b 04 24          	mov    (%r12),%eax
   2e0ed:	83 fa 05             	cmp    $0x5,%edx
   2e0f0:	0f 84 5a 03 00 00    	je     2e450 <D_DoomMain+0xc70>
   2e0f6:	83 f8 01             	cmp    $0x1,%eax
   2e0f9:	0f 86 99 02 00 00    	jbe    2e398 <D_DoomMain+0xbb8>
   2e0ff:	83 f8 03             	cmp    $0x3,%eax
   2e102:	0f 84 7a 03 00 00    	je     2e482 <D_DoomMain+0xca2>
   2e108:	83 f8 02             	cmp    $0x2,%eax
   2e10b:	48 8d 05 ae cf 03 00 	lea    0x3cfae(%rip),%rax        # 6b0c0 <gameversion>
   2e112:	0f 84 7c 03 00 00    	je     2e494 <D_DoomMain+0xcb4>
   2e118:	8b 00                	mov    (%rax),%eax
   2e11a:	83 f8 05             	cmp    $0x5,%eax
   2e11d:	0f 86 ed f9 ff ff    	jbe    2db10 <D_DoomMain+0x330>
   2e123:	66 90                	xchg   %ax,%ax
   2e125:	66 66 2e 0f 1f 84 00 	data16 cs nopw 0x0(%rax,%rax,1)
   2e12c:	00 00 00 00 
   2e130:	83 f8 06             	cmp    $0x6,%eax
   2e133:	0f 85 d7 f9 ff ff    	jne    2db10 <D_DoomMain+0x330>
   2e139:	41 8b 04 24          	mov    (%r12),%eax
   2e13d:	e9 9c f9 ff ff       	jmp    2dade <D_DoomMain+0x2fe>
   2e142:	66 0f 1f 44 00 00    	nopw   0x0(%rax,%rax,1)
   2e148:	48 8d 3d 2a b3 fd ff 	lea    -0x24cd6(%rip),%rdi        # 9479 <weapon_order_table-0x56c7>
   2e14f:	e8 0c 91 00 00       	call   37260 <W_CheckNumForName>
   2e154:	85 c0                	test   %eax,%eax
   2e156:	0f 89 18 fc ff ff    	jns    2dd74 <D_DoomMain+0x594>
   2e15c:	48 8d 3d 35 e9 fd ff 	lea    -0x216cb(%rip),%rdi        # ca98 <weapon_order_table-0x20a8>
   2e163:	31 c0                	xor    %eax,%eax
   2e165:	e8 a6 d2 ff ff       	call   2b410 <printf>
   2e16a:	e8 31 77 00 00       	call   358a0 <I_PrintDivider>
   2e16f:	e9 00 fc ff ff       	jmp    2dd74 <D_DoomMain+0x594>
   2e174:	0f 1f 40 00          	nopl   0x0(%rax)
   2e178:	48 8d 3d 81 9e fd ff 	lea    -0x2617f(%rip),%rdi        # 8000 <weapon_order_table-0x6b40>
   2e17f:	e8 dc 90 00 00       	call   37260 <W_CheckNumForName>
   2e184:	85 c0                	test   %eax,%eax
   2e186:	0f 89 ad fb ff ff    	jns    2dd39 <D_DoomMain+0x559>
   2e18c:	e9 bb fb ff ff       	jmp    2dd4c <D_DoomMain+0x56c>
   2e191:	0f 1f 80 00 00 00 00 	nopl   0x0(%rax)
   2e198:	48 8d 15 38 ac fd ff 	lea    -0x253c8(%rip),%rdx        # 8dd7 <weapon_order_table-0x5d69>
   2e19f:	be 00 01 00 00       	mov    $0x100,%esi
   2e1a4:	4c 89 ef             	mov    %r13,%rdi
   2e1a7:	31 c0                	xor    %eax,%eax
   2e1a9:	e8 72 d3 ff ff       	call   2b520 <snprintf>
   2e1ae:	e9 07 fa ff ff       	jmp    2dbba <D_DoomMain+0x3da>
   2e1b3:	0f 1f 44 00 00       	nopl   0x0(%rax,%rax,1)
   2e1b8:	48 8d 05 31 d1 08 01 	lea    0x108d131(%rip),%rax        # 10bb2f0 <singledemo>
   2e1bf:	48 8d 7c 24 17       	lea    0x17(%rsp),%rdi
   2e1c4:	c7 00 01 00 00 00    	movl   $0x1,(%rax)
   2e1ca:	e8 51 54 00 00       	call   33620 <G_DeferedPlayDemo>
   2e1cf:	e8 3c ee ff ff       	call   2d010 <D_DoomLoop>
   2e1d4:	e9 e0 fe ff ff       	jmp    2e0b9 <D_DoomMain+0x8d9>
   2e1d9:	0f 1f 80 00 00 00 00 	nopl   0x0(%rax)
   2e1e0:	48 8d 15 79 c3 08 01 	lea    0x108c379(%rip),%rdx        # 10ba560 <myargv>
   2e1e7:	48 98                	cltq
   2e1e9:	48 8b 12             	mov    (%rdx),%rdx
   2e1ec:	48 8b 7c c2 08       	mov    0x8(%rdx,%rax,8),%rdi
   2e1f1:	e8 8a 51 00 00       	call   33380 <G_RecordDemo>
   2e1f6:	c7 03 01 00 00 00    	movl   $0x1,(%rbx)
   2e1fc:	e9 27 fe ff ff       	jmp    2e028 <D_DoomMain+0x848>
   2e201:	0f 1f 80 00 00 00 00 	nopl   0x0(%rax)
   2e208:	48 8d 3d 71 7b 03 00 	lea    0x37b71(%rip),%rdi        # 65d80 <StatDump>
   2e20f:	be 01 00 00 00       	mov    $0x1,%esi
   2e214:	e8 f7 75 00 00       	call   35810 <I_AtExit>
   2e219:	48 8d 3d 20 fa fd ff 	lea    -0x205e0(%rip),%rdi        # dc40 <weapon_order_table-0xf00>
   2e220:	31 c0                	xor    %eax,%eax
   2e222:	e8 e9 d1 ff ff       	call   2b410 <printf>
   2e227:	e9 e3 fd ff ff       	jmp    2e00f <D_DoomMain+0x82f>
   2e22c:	0f 1f 40 00          	nopl   0x0(%rax)
   2e230:	48 8d 05 29 c3 08 01 	lea    0x108c329(%rip),%rax        # 10ba560 <myargv>
   2e237:	48 8b 00             	mov    (%rax),%rax
   2e23a:	48 8b 7c d0 08       	mov    0x8(%rax,%rdx,8),%rdi
